(ilstm_cvae_model
ModelConfig
p1
(dp2
S'min_score'
p3
I0
sS'input_path'
p4
S'/Users/tongwang/Playground/deepjoke/joke-dataset/reddit_jokes.json'
p5
sS'latent_size'
p6
I64
sS'kl_weight'
p7
I50
sS'lstm_size_encoder'
p8
I256
sS'score_transform'
p9
S'log'
p10
sS'embedding_dim'
p11
I100
sS'batch_size'
p12
I32
sS'max_nb_words'
p13
I50000
sS'epochs'
p14
I2
sS'embedding_path'
p15
S'/Users/tongwang/Playground/deepjoke/glove.6B/glove.6B.100d.txt'
p16
sS'validation_split'
p17
F0.10000000000000001
sS'max_sequence_length'
p18
I300
sS'model_dir'
p19
S'/Users/tongwang/Playground/deepjoke/code/model_checkpoints/lstm_cvae/20170617_221531'
p20
sS'max_nb_examples'
p21
I1000
sS'optimizer'
p22
S'RMSprop'
p23
sS'intermediate_size'
p24
I128
sS'lstm_size_decoder'
p25
I256
sb.