ccopy_reg
_reconstructor
p1
(ckeras.preprocessing.text
Tokenizer
p2
c__builtin__
object
p3
NtRp4
(dp5
S'lower'
p6
I01
sS'word_index'
p7
(dp8
S'raining'
p9
I718
sS'pardon'
p10
I1560
sS'believed'
p11
I3169
sS'four'
p12
I558
sS'sleep'
p13
I559
sS'asian'
p14
I1562
sS"friend's"
p15
I1563
sS'hanging'
p16
I987
sS'captain'
p17
I1564
sS'hate'
p18
I262
sS'rocking'
p19
I1565
sS'poorly'
p20
I1609
sS'relationships'
p21
I1567
sS'whose'
p22
I998
sS'buddy'
p23
I719
sS'snowing'
p24
I988
sS'tweet'
p25
I1569
sS'disability'
p26
I1570
sS"what'd"
p27
I2935
sS'voted'
p28
I1573
sS'under'
p29
I456
sS'recycle'
p30
I1574
sS'lord'
p31
I561
sS'sorry'
p32
I138
sS'pride'
p33
I1575
sS'worth'
p34
I989
sS'merchant'
p35
I1576
sS'helped'
p36
I3457
sS'rescue'
p37
I990
sS'compassion'
p38
I1578
sS'rise'
p39
I1579
sS"women's"
p40
I1021
sS'shoot'
p41
I1582
sS'every'
p42
I218
sS'jack'
p43
I991
sS'affect'
p44
I1583
sS'excited'
p45
I2996
sS'tickets'
p46
I1584
sS"daughter's"
p47
I1585
sS'school'
p48
I219
sS'bewildered'
p49
I1586
sS'baking'
p50
I1587
sS'prize'
p51
I1588
sS'parrot'
p52
I457
sS'wooden'
p53
I1589
sS'leek'
p54
I2475
sS'wednesday'
p55
I1590
sS'convenience'
p56
I1591
sS'vector'
p57
I1592
sS'red'
p58
I258
sS'cholesterol'
p59
I1593
sS'reliable'
p60
I1594
sS'clothes'
p61
I992
sS'estimations'
p62
I1595
sS'tired'
p63
I994
sS'phones'
p64
I1596
sS'feathers'
p65
I995
sS'japanese'
p66
I563
sS'pulse'
p67
I1597
sS'preacher'
p68
I1598
sS'dish'
p69
I2585
sS'second'
p70
I188
sS'street'
p71
I458
sS'n'
I1600
sS'even'
p72
I171
sS'lesser'
p73
I1901
sS'oldest'
p74
I1602
sS'christ'
p75
I564
sS'contemplates'
p76
I1603
sS'beaten'
p77
I1604
sS'orchestra'
p78
I1605
sS'fingers'
p79
I721
sS'liberty'
p80
I1606
sS'lampshade'
p81
I1607
sS'formatting'
p82
I1608
sS'above'
p83
I996
sS'blur'
p84
I340
sS'new'
p85
I140
sS'ever'
p86
I220
sS'sidled'
p87
I1610
sS'told'
p88
I88
sS'kicked'
p89
I1611
sS'simultaneously'
p90
I1612
sS'screams'
p91
I580
sS'join'
p92
I1614
sS'never'
p93
I129
sS'here'
p94
I139
sS'hundreds'
p95
I1615
sS'met'
p96
I722
sS'studio'
p97
I1617
sS'fleet'
p98
I1618
sS'100'
p99
I459
sS"aren't"
p100
I723
sS"back'"
p101
I3115
sS'kids'
p102
I724
sS'daughter'
p103
I460
sS'jams'
p104
I1620
sS'stevie'
p105
I1621
sS'items'
p106
I1622
sS'settles'
p107
I1623
sS'ajax'
p108
I2258
sS'reports'
p109
I1625
sS'museums'
p110
I1626
sS'electricity'
p111
I1627
sS'jogging'
p112
I1628
sS"i'd"
p113
I341
sS'smoke'
p114
I725
sS"i'm"
p115
I50
sS'diameter'
p116
I1629
sS'prints'
p117
I1001
sS'divide'
p118
I1630
sS'fireworks'
p119
I1631
sS'angrily'
p120
I1632
sS'replace'
p121
I1633
sS'brought'
p122
I955
sS'moral'
p123
I1634
sS'cocaine'
p124
I1635
sS'bra'
p125
I1636
sS'criminals'
p126
I1637
sS'would'
p127
I89
sS'hospital'
p128
I1638
sS'indians'
p129
I1639
sS'arms'
p130
I1004
sS'proctologist'
p131
I1640
sS'call'
p132
I118
sS'calm'
p133
I1289
sS'bdsm'
p134
I1642
sS'survive'
p135
I1644
sS'type'
p136
I1005
sS'tell'
p137
I342
sS'calf'
p138
I1645
sS'teaspoon'
p139
I1646
sS'posting'
p140
I1648
sS'holy'
p141
I1649
sS'71828'
p142
I1006
sS'successful'
p143
I1650
sS'brings'
p144
I1007
sS'phony'
p145
I1651
sS'award'
p146
I1652
sS'hurt'
p147
I1008
sS'phone'
p148
I406
sS'towns'
p149
I2934
sS'warm'
p150
I1653
sS'pecan'
p151
I1010
sS'tying'
p152
I1011
sS'prescription'
p153
I1654
sS'robbing'
p154
I1655
sS'yard'
p155
I3302
sS'hole'
p156
I1012
sS'hold'
p157
I726
sS'95'
p158
I1657
sS'sped'
p159
I1658
sS'hola'
p160
I715
sS'must'
p161
I343
sS'me'
p162
I26
sS'word'
p163
I685
sS'room'
p164
I263
sS'shame'
p165
I1909
sS'work'
p166
I221
sS'roof'
p167
I727
sS"'lift"
p168
I1660
sS'era'
p169
I1661
sS'install'
p170
I1662
sS'mr'
p171
I880
sS'elbow'
p172
I1664
sS'plunges'
p173
I1665
sS'my'
p174
I16
sS'example'
p175
I1013
sS'melons'
p176
I1666
sS'thirsty'
p177
I3215
sS'give'
p178
I130
sS'hebrew'
p179
I1667
sS'india'
p180
I1668
sS'honey'
p181
I264
sS'currency'
p182
I1014
sS'want'
p183
I131
sS'times'
p184
I491
sS'attract'
p185
I1670
sS'aging'
p186
I1671
sS'end'
p187
I281
sS'thing'
p188
I290
sS'agony'
p189
I1673
sS'puzzled'
p190
I547
sS'nuts'
p191
I1017
sS'machine'
p192
I1019
sS'how'
p193
I46
sS'hot'
p194
I565
sS'hitman'
p195
I1674
sS'morbid'
p196
I1675
sS'answer'
p197
I344
sS'pizza'
p198
I566
sS'badly'
p199
I1677
sS'mess'
p200
I1678
sS'after'
p201
I78
sS'delicacy'
p202
I728
sS'imaginable'
p203
I800
sS'lab'
p204
I729
sS'dinosaurs'
p205
I1680
sS'wrong'
p206
I308
sS'poked'
p207
I731
sS'lay'
p208
I1681
sS'suing'
p209
I1682
sS'vase'
p210
I1580
sS'lesbian'
p211
I1683
sS'types'
p212
I1022
sS'purchase'
p213
I567
sS'third'
p214
I345
sS'inquires'
p215
I2748
sS'wink'
p216
I1685
sS'green'
p217
I1023
sS'jungle'
p218
I1686
sS'keeps'
p219
I732
sS'fan'
p220
I1687
sS'seamus'
p221
I265
sS'order'
p222
I1127
sS'wind'
p223
I733
sS'wine'
p224
I1024
sS'origin'
p225
I1688
sS'executed'
p226
I1689
sS'office'
p227
I734
sS'walgreens'
p228
I1690
sS'over'
p229
I97
sS'satisfied'
p230
I1692
sS"mary's"
p231
I1693
sS'nsfw'
p232
I735
sS'oven'
p233
I1694
sS'thanqueue'
p234
I1695
sS'before'
p235
I119
sS'californians'
p236
I1696
sS'jersey'
p237
I3423
sS'frisky'
p238
I1697
sS'somewhere'
p239
I736
sS','
I3
sS'writing'
p240
I1025
sS'better'
p241
I309
sS'easier'
p242
I1698
sS'then'
p243
I63
sS'them'
p244
I91
sS'blowjobs'
p245
I1699
sS'powerful'
p246
I1027
sS"we'll"
p247
I1700
sS'willpower'
p248
I3397
sS'break'
p249
I391
sS'band'
p250
I1701
sS'bang'
p251
I568
sS'repulsive'
p252
I1702
sS'crib'
p253
I2272
sS'they'
p254
I30
sS'altogether'
p255
I1703
sS'echo'
p256
I1704
sS'weenie'
p257
I1028
sS'bread'
p258
I1705
sS'grammar'
p259
I1706
sS"'oh"
p260
I737
sS'thyme'
p261
I738
sS'pornhub'
p262
I1707
sS'regularly'
p263
I3372
sS'potatoes'
p264
I1029
sS'arrested'
p265
I569
sS'dumps'
p266
I1708
sS"doctor's"
p267
I1030
sS'went'
p268
I107
sS'rosemary'
p269
I1709
sS'side'
p270
I392
sS'mean'
p271
I282
sS'wheel'
p272
I1925
sS'signing'
p273
I1711
sS'gunna'
p274
I1712
sS'troglodyke'
p275
I1713
sS'allah'
p276
I1714
sS'solution'
p277
I1715
sS'owner'
p278
I449
sS'taught'
p279
I1716
sS"we'd"
p280
I1032
sS'stealing'
p281
I739
sS'navy'
p282
I1717
sS'aids'
p283
I1718
sS'ghosts'
p284
I1033
sS'sounds'
p285
I463
sS'whip'
p286
I1719
sS'driving'
p287
I570
sS'god'
p288
I240
sS'washed'
p289
I1721
sS'ry'
p290
I1722
sS'stitched'
p291
I3052
sS'80mph'
p292
I1723
sS're'
p293
I1724
sS'encourage'
p294
I1725
sS"member's"
p295
I1572
sS'discharged'
p296
I2275
sS'got'
p297
I76
sS'engineer'
p298
I495
sS'forth'
p299
I1729
sS'turning'
p300
I1731
sS"you're"
p301
I152
sS"20's"
p302
I1263
sS'leftovers'
p303
I1733
sS'given'
p304
I1734
sS'free'
p305
I740
sS'fred'
p306
I1735
sS'management'
p307
I1736
sS'rain'
p308
I464
sS'egyptians'
p309
I1737
sS'returning'
p310
I1738
sS'wanted'
p311
I173
sS'metallica'
p312
I1739
sS"bear's"
p313
I1740
sS'juan'
p314
I1741
sS'aisle'
p315
I1742
sS'enormous'
p316
I1743
sS'ate'
p317
I1744
sS"drivin'"
p318
I1745
sS'created'
p319
I1746
sS'starts'
p320
I571
sS'days'
p321
I572
sS'musicians'
p322
I1747
sS'speedy'
p323
I1748
sS'plummets'
p324
I1749
sS'arrived'
p325
I614
sS'onto'
p326
I1283
sS'bite'
p327
I1752
sS'chopped'
p328
I1753
sS'pterodactyl'
p329
I1754
sS'already'
p330
I573
sS'grade'
p331
I1755
sS'disfigured'
p332
I1756
sS"'you're"
p333
I1757
sS'accidentally'
p334
I741
sS'channels'
p335
I1036
sS'lettuce'
p336
I1758
sS'spinning'
p337
I1759
sS'floors'
p338
I1760
sS'another'
p339
I310
sS'drones'
p340
I394
sS'comic'
p341
I1761
sS'inseminate'
p342
I2300
sS'flake'
p343
I3538
sS'zheimers'
p344
I1762
sS'fence'
p345
I1254
sS'service'
p346
I466
sS'top'
p347
I283
sS'girls'
p348
I1038
sS'elevator'
p349
I1763
sS'needed'
p350
I574
sS'blurts'
p351
I743
sS'master'
p352
I1764
sS'too'
p353
I120
sS'chugging'
p354
I1766
sS'percentage'
p355
I1767
sS'legs'
p356
I311
sS'dogs'
p357
I467
sS'listen'
p358
I744
sS'happily'
p359
I1768
sS'gym'
p360
I575
sS'serve'
p361
I1039
sS'took'
p362
I241
sS'negotiating'
p363
I1769
sS'wrapped'
p364
I1770
sS'somewhat'
p365
I1771
sS'shortly'
p366
I1772
sS'begins'
p367
I1041
sS'showed'
p368
I395
sS'divisible'
p369
I1773
sS'outlaw'
p370
I1774
sS'immigrants'
p371
I1775
sS'tree'
p372
I266
sS'zero'
p373
I1776
sS'seated'
p374
I1042
sS'shower'
p375
I1043
sS'matter'
p376
I396
sS'louder'
p377
I1577
sS'iron'
p378
I1778
sS'10th'
p379
I522
sS'bridge'
p380
I1779
sS'dozes'
p381
I1780
sS'sees'
p382
I346
sS"parents'"
p383
I2941
sS'handkerchief'
p384
I1781
sS'ran'
p385
I468
sS"sarah's"
p386
I2973
sS'shyly'
p387
I1782
sS'mind'
p388
I747
sS'mine'
p389
I748
sS'glass'
p390
I1783
sS'talking'
p391
I267
sS'shell'
p392
I3320
sS'corny'
p393
I1784
sS'seen'
p394
I284
sS'seem'
p395
I1785
sS'urinate'
p396
I1786
sS'tells'
p397
I242
sS'contents'
p398
I1787
sS'dozen'
p399
I749
sS'forced'
p400
I750
sS'sterile'
p401
I1788
sS"she'd"
p402
I1789
sS'rudolph'
p403
I751
sS'snow'
p404
I752
sS'impotent'
p405
I1790
sS'chest'
p406
I1792
sS'edge'
p407
I2975
sS'instructs'
p408
I576
sS'doors'
p409
I1794
sS'hatch'
p410
I1795
sS'swims'
p411
I1796
sS'panties'
p412
I1044
sS'rides'
p413
I1797
sS'snowflake'
p414
I1798
sS'blue'
p415
I577
sS'exactly'
p416
I1458
sS'lion'
p417
I2878
sS'though'
p418
I1799
sS'iceland'
p419
I1800
sS'rappers'
p420
I1801
sS'sue'
p421
I1802
sS"see'"
p422
I1803
sS"talkin'"
p423
I1804
sS'errors'
p424
I1805
sS'gallagher'
p425
I1751
sS'addict'
p426
I1046
sS'genital'
p427
I1807
sS'autopsy'
p428
I1047
sS'darkness'
p429
I1619
sS'don'
p430
I1809
sS'doc'
p431
I397
sS'professor'
p432
I1048
sS'm'
I1810
sS'dog'
p433
I347
sS'definitely'
p434
I1383
sS'aunt'
p435
I1812
sS'pretty'
p436
I1324
sS'scotch'
p437
I1814
sS'annoyed'
p438
I805
sS'came'
p439
I132
sS'crowbar'
p440
I1815
sS'saying'
p441
I469
sS'boogie'
p442
I1816
sS'bomb'
p443
I1817
sS'pope'
p444
I686
sS'labels'
p445
I1819
sS'anniversary'
p446
I1262
sS'pops'
p447
I1820
sS'attempts'
p448
I1821
sS'gauge'
p449
I1822
sS'stepping'
p450
I1823
sS'earth'
p451
I470
sS'toast'
p452
I1824
sS'vasectomy'
p453
I1825
sS'busy'
p454
I1429
sS'clicked'
p455
I1050
sS'just'
p456
I42
sS'headline'
p457
I1829
sS'bush'
p458
I1830
sS'touched'
p459
I348
sS'rich'
p460
I933
sS'folks'
p461
I1405
sS'constant'
p462
I3079
sS'sumbitch'
p463
I2288
sS"'no"
p464
I1834
sS'personality'
p465
I1051
sS'wearing'
p466
I1835
sS'do'
p467
I27
sS'tiles'
p468
I1836
sS'wide'
p469
I2289
sS"'i"
p470
I398
sS'stop'
p471
I937
sS'herd'
p472
I1837
sS'pocket'
p473
I756
sS'amazon'
p474
I757
sS"priest's"
p475
I1838
sS'supplies'
p476
I997
sS'smug'
p477
I1839
sS'iceberg'
p478
I758
sS'toolbox'
p479
I1840
sS'undressed'
p480
I1841
sS'learned'
p481
I1052
sS'lmao'
p482
I1842
sS'runs'
p483
I578
sS'bar'
p484
I159
sS'spilling'
p485
I1843
sS'covering'
p486
I1844
sS'suggested'
p487
I3437
sS'plush'
p488
I1845
sS'twice'
p489
I759
sS'bad'
p490
I268
sS'terabyte'
p491
I1846
sS'ban'
p492
I1847
sS'hawww'
p493
I1848
sS'automatic'
p494
I1849
sS'ears'
p495
I473
sS'respond'
p496
I3307
sS'blew'
p497
I1851
sS'penance'
p498
I1852
sS'decides'
p499
I579
sS'disaster'
p500
I760
sS'fair'
p501
I1853
sS'liquor'
p502
I1854
sS"'yeah"
p503
I761
sS'resist'
p504
I1054
sS'herds'
p505
I1856
sS'decided'
p506
I285
sS'cattle'
p507
I1857
sS'miserable'
p508
I1858
sS'best'
p509
I286
sS'orgies'
p510
I1952
sS'90mph'
p511
I1859
sS'00'
p512
I474
sS'said'
p513
I33
sS'peta'
p514
I1860
sS'lots'
p515
I762
sS'away'
p516
I160
sS'grandmother'
p517
I1055
sS"there's"
p518
I312
sS'finger'
p519
I581
sS'hopefully'
p520
I1861
sS'mum'
p521
I1056
sS'sorts'
p522
I1862
sS'approach'
p523
I763
sS'discovery'
p524
I1863
sS'indecisive'
p525
I1864
sS'we'
p526
I72
sS'men'
p527
I222
sS'wears'
p528
I1865
sS'yardwork'
p529
I1866
sS'however'
p530
I1057
sS'boss'
p531
I582
sS'wear'
p532
I1058
sS"'and"
p533
I1059
sS'news'
p534
I387
sS'debt'
p535
I1060
sS'kitchen'
p536
I1061
sS'pity'
p537
I1062
sS'protect'
p538
I1868
sS'accident'
p539
I1063
sS'cow'
p540
I1504
sS'reported'
p541
I1870
sS'fault'
p542
I1064
sS'ill'
p543
I1871
sS'cup'
p544
I2284
sS'demanded'
p545
I1065
sS'damned'
p546
I2295
sS'faces'
p547
I1874
sS'china'
p548
I1875
sS'asked'
p549
I68
sS'lenses'
p550
I1876
sS'eyesight'
p551
I1877
sS'appeared'
p552
I1066
sS'character'
p553
I1878
sS'steaks'
p554
I1879
sS'viruses'
p555
I1881
sS'paused'
p556
I1882
sS'loaded'
p557
I1067
sS'blonde'
p558
I583
sS'hitler'
p559
I1068
sS'speak'
p560
I1534
sS'gratitude'
p561
I1884
sS'bathroom'
p562
I153
sS'proceeded'
p563
I1069
sS'puts'
p564
I764
sS'fawkes'
p565
I1885
sS'9th'
p566
I3165
sS'three'
p567
I201
sS'been'
p568
I90
sS'.'
I1
sS'submarine'
p569
I1886
sS'sleepover'
p570
I1887
sS'much'
p571
I190
sS'interest'
p572
I1070
sS'expected'
p573
I1071
sS'flexible'
p574
I1888
sS'basin'
p575
I1889
sS'lovely'
p576
I1072
sS'scarecrow'
p577
I1890
sS'threw'
p578
I1891
sS'chug'
p579
I1892
sS'life'
p580
I269
sS'drugs'
p581
I1074
sS"customers'"
p582
I1893
sS"seamonster's"
p583
I1894
sS'worker'
p584
I1075
sS'davy'
p585
I1895
sS'lift'
p586
I765
sS'child'
p587
I1076
sS'catch'
p588
I766
sS'worked'
p589
I1896
sS'cunt'
p590
I1897
sS'scotsman'
p591
I1077
sS'has'
p592
I79
sS"'well"
p593
I584
sS'publicly'
p594
I1898
sS'sadists'
p595
I1899
sS'tastes'
p596
I1900
sS'air'
p597
I1078
sS'employ'
p598
I1601
sS'ugly'
p599
I1079
sS'lizard'
p600
I349
sS'melted'
p601
I1080
sS'suppose'
p602
I1081
sS'stopping'
p603
I1902
sS'comedian'
p604
I2303
sS'mistake'
p605
I1903
sS'precipitation'
p606
I3002
sS'shamu'
p607
I1904
sS'seven'
p608
I1905
sS'changed'
p609
I1906
sS'mexico'
p610
I1907
sS"50's"
p611
I1908
sS'is'
p612
I14
sS'it'
p613
I12
sS'player'
p614
I461
sS'cant'
p615
I1910
sS'in'
p616
I13
sS'conditioner'
p617
I1911
sS'pathology'
p618
I1912
sS'shift'
p619
I2942
sS'mouse'
p620
I1913
sS'id'
p621
I1018
sS'if'
p622
I51
sS'things'
p623
I528
sS'make'
p624
I172
sS'shipwrecked'
p625
I1917
sS'jerry'
p626
I1918
sS'forehead'
p627
I1919
sS'haphazard'
p628
I1920
sS'complex'
p629
I767
sS'programmer'
p630
I1869
sS'babies'
p631
I768
sS'vegetable'
p632
I1922
sS'monarch'
p633
I1923
sS'several'
p634
I769
sS'bunny'
p635
I585
sS'vibrates'
p636
I1710
sS'meets'
p637
I1926
sS'satellite'
p638
I1927
sS'marches'
p639
I1929
sS'social'
p640
I1930
sS'hang'
p641
I1084
sS'evil'
p642
I770
sS'hand'
p643
I174
sS'norwegian'
p644
I890
sS'hans'
p645
I1085
sS"he'll"
p646
I771
sS'nit'
p647
I1933
sS'kid'
p648
I476
sS'butter'
p649
I1934
sS'kept'
p650
I586
sS"mamma's"
p651
I1935
sS'humble'
p652
I1936
sS'suffering'
p653
I1937
sS'orgasms'
p654
I1938
sS'savings'
p655
I1939
sS'contact'
p656
I1940
sS'greatest'
p657
I1941
sS'mother'
p658
I243
sS'raindrops'
p659
I1942
sS'the'
p660
I2
sS'yours'
p661
I1943
sS'left'
p662
I121
sS'opinions'
p663
I1944
sS"she'll"
p664
I1086
sS'sleeps'
p665
I1197
sS'yea'
p666
I1087
sS'sporting'
p667
I1945
sS'yee'
p668
I1946
sS'kinks'
p669
I1947
sS'gravity'
p670
I1948
sS'identify'
p671
I1949
sS'thanks'
p672
I1950
sS'human'
p673
I587
sS'yep'
p674
I1088
sS'yes'
p675
I313
sS'yet'
p676
I314
sS'jose'
p677
I1951
sS'nudge'
p678
I1953
sS'photographer'
p679
I772
sS"'trump"
p680
I1089
sS'had'
p681
I83
sS'hay'
p682
I773
sS'spread'
p683
I1954
sS'affinity'
p684
I1955
sS'easy'
p685
I1956
sS'prison'
p686
I1090
sS'pointing'
p687
I1957
sS'save'
p688
I399
sS'expelled'
p689
I1091
sS'gave'
p690
I588
sS'ashore'
p691
I1959
sS'casually'
p692
I1960
sS'ninjas'
p693
I1968
sS'breaks'
p694
I477
sS'sarrrrrrr'
p695
I2313
sS"'dry'"
p696
I1962
sS'possible'
p697
I774
sS'caps'
p698
I1963
sS'arab'
p699
I589
sS'birth'
p700
I1093
sS'forested'
p701
I1964
sS'burnt'
p702
I1966
sS'apart'
p703
I1965
sS'shoulder'
p704
I775
sS'county'
p705
I1003
sS"states'"
p706
I1969
sS'59'
p707
I1970
sS'gift'
p708
I1971
sS'manual'
p709
I1972
sS'50'
p710
I400
sS'52'
p711
I1973
sS'specific'
p712
I1974
sS'remind'
p713
I1975
sS'pavement'
p714
I1976
sS'zoos'
p715
I1977
sS'steps'
p716
I1978
sS'officer'
p717
I776
sS'night'
p718
I202
sS'right'
p719
I122
sS'old'
p720
I154
sS'crowd'
p721
I777
sS'people'
p722
I101
sS'sends'
p723
I1979
sS'groupies'
p724
I1980
sS'deaf'
p725
I590
sS'dead'
p726
I591
sS'born'
p727
I592
sS'donald'
p728
I191
sS'meters'
p729
I1981
sS'dear'
p730
I478
sS'pain'
p731
I2319
sS'advertise'
p732
I1983
sS'tripped'
p733
I1984
sS'for'
p734
I19
sS'bottom'
p735
I1985
sS'purple'
p736
I1095
sS'ice'
p737
I593
sS"'i'm"
p738
I1096
sS'everything'
p739
I778
sS'asking'
p740
I594
sS'shakespeare'
p741
I1987
sS'summoned'
p742
I1988
sS'convict'
p743
I1097
sS'beating'
p744
I1989
sS'christmas'
p745
I479
sS'shakes'
p746
I595
sS"thing's"
p747
I1990
sS"ol'"
p748
I1991
sS'dental'
p749
I1992
sS'popular'
p750
I3011
sS'yoke'
p751
I1098
sS'mutters'
p752
I1995
sS'keeper'
p753
I1996
sS'post'
p754
I779
sS'bury'
p755
I1136
sS'proceed'
p756
I1997
sS'hearing'
p757
I1998
sS'852236709'
p758
I1999
sS'commanded'
p759
I2000
sS'yelling'
p760
I1099
sS'derailed'
p761
I2001
sS'cowboy'
p762
I2002
sS'dollars'
p763
I401
sS'months'
p764
I1145
sS'o'
I2003
sS'sizzling'
p765
I2004
sS'dinner'
p766
I402
sS'plus'
p767
I780
sS'jew'
p768
I2782
sS'horizon'
p769
I2006
sS'slightly'
p770
I2007
sS'raised'
p771
I1100
sS'whats'
p772
I781
sS'material'
p773
I1921
sS'cauldron'
p774
I2010
sS'son'
p775
I175
sS'down'
p776
I96
sS'remarks'
p777
I2132
sS'donated'
p778
I2012
sS'raises'
p779
I1101
sS'librarian'
p780
I2013
sS'anorexic'
p781
I2014
sS'existed'
p782
I2015
sS'dooowuuuwaaaaaaa'
p783
I2016
sS'deal'
p784
I782
sS'support'
p785
I2018
sS'flying'
p786
I2019
sS'fight'
p787
I480
sS'virgin'
p788
I1102
sS"boy's"
p789
I836
sS'way'
p790
I133
sS'jane'
p791
I2021
sS'music'
p792
I1103
sS'was'
p793
I17
sS'happy'
p794
I316
sS'head'
p795
I287
sS'form'
p796
I2022
sS'offer'
p797
I1104
sS'batman'
p798
I1105
sS'gorgeous'
p799
I783
sS'manmade'
p800
I2023
sS'oil'
p801
I2024
sS'chewers'
p802
I2025
sS'hemisphere'
p803
I2026
sS'hear'
p804
I111
sS'elderly'
p805
I2027
sS'astonished'
p806
I2028
sS'removed'
p807
I2029
sS'nodded'
p808
I1191
sS'reset'
p809
I2030
sS'throw'
p810
I846
sS'isis'
p811
I2032
sS'builds'
p812
I2033
sS'crows'
p813
I1106
sS'inside'
p814
I785
sS'until'
p815
I403
sS'headjob'
p816
I2034
sS'whiskey'
p817
I1107
sS'scream'
p818
I754
sS'scrabble'
p819
I2036
sS'trembles'
p820
I2037
sS'70mph'
p821
I2038
sS'trim'
p822
I2039
sS'napkin'
p823
I2040
sS'liberal'
p824
I2041
sS'up'
p825
I39
sS'knees'
p826
I2883
sS'religiously'
p827
I2042
sS'covers'
p828
I999
sS'sale'
p829
I1183
sS"''"
p830
I2045
sS'sometime'
p831
I2046
sS'ship'
p832
I2047
sS'annoying'
p833
I2048
sS'dealer'
p834
I1209
sS'shit'
p835
I404
sS'coffins'
p836
I2049
sS'pipe'
p837
I3349
sS'dying'
p838
I841
sS'floor'
p839
I638
sS'stake'
p840
I2051
sS'tip'
p841
I1031
sS'vanishes'
p842
I2052
sS'handed'
p843
I2053
sS'reality'
p844
I2054
sS'til'
p845
I1108
sS'flood'
p846
I2055
sS'tin'
p847
I786
sS'holding'
p848
I1109
sS'kawalski'
p849
I2056
sS'tie'
p850
I2057
sS'confusing'
p851
I2058
sS'grimly'
p852
I2059
sS'realize'
p853
I3495
sS'savage'
p854
I2060
sS'dies'
p855
I1222
sS'welcome'
p856
I1110
sS'healthiest'
p857
I2062
sS"let's"
p858
I1111
sS'fell'
p859
I599
sS'occasion'
p860
I2065
sS'snooze'
p861
I2066
sS'aware'
p862
I2067
sS'epsorts'
p863
I2068
sS'died'
p864
I405
sS'jones'
p865
I2069
sS'spades'
p866
I2070
sS'faster'
p867
I823
sS'98'
p868
I1009
sS'assume'
p869
I2071
sS'proposed'
p870
I1827
sS'pseudo'
p871
I2072
sS'flag'
p872
I2668
sS'together'
p873
I352
sS'hitchhikers'
p874
I2074
sS'rough'
p875
I2114
sS'teeth'
p876
I1241
sS'serious'
p877
I787
sS'someplace'
p878
I1568
sS'others'
p879
I929
sS'songs'
p880
I2075
sS'gown'
p881
I2076
sS'childs'
p882
I2077
sS'chain'
p883
I2078
sS'ambulance'
p884
I2079
sS'dance'
p885
I2080
sS'rob'
p886
I2081
sS'focus'
p887
I788
sS'crocodile'
p888
I600
sS'manager'
p889
I1113
sS'mile'
p890
I1114
sS'skin'
p891
I789
sS'chair'
p892
I601
sS'milk'
p893
I602
sS'row'
p894
I1115
sS'devoted'
p895
I2082
sS'certainly'
p896
I2083
sS'flask'
p897
I790
sS'father'
p898
I123
sS'environment'
p899
I2085
sS'answered'
p900
I864
sS'finally'
p901
I223
sS'permanently'
p902
I2087
sS'overrun'
p903
I1659
sS'piesexual'
p904
I2089
sS'hellen'
p905
I2090
sS'brown'
p906
I353
sS'jerk'
p907
I791
sS'yeast'
p908
I2485
sS'billionaire'
p909
I2091
sS'lard'
p910
I3029
sS'pays'
p911
I2009
sS'brownie'
p912
I2092
sS'vegan'
p913
I2093
sS'choice'
p914
I792
sS'hardened'
p915
I3206
sS'cook'
p916
I2094
sS'bartender'
p917
I189
sS'trouble'
p918
I604
sS'minute'
p919
I1116
sS'cool'
p920
I1117
sS'swallowing'
p921
I2815
sS'penises'
p922
I1118
sS'vladimir'
p923
I2096
sS'knockin'
p924
I2097
sS'level'
p925
I1119
sS'did'
p926
I40
sS'turns'
p927
I229
sS'dig'
p928
I2098
sS'posts'
p929
I2099
sS'gun'
p930
I372
sS'gum'
p931
I1120
sS'standards'
p932
I2100
sS'leave'
p933
I1121
sS'p'
I794
sS'team'
p934
I1122
sS'quick'
p935
I1123
sS'lever'
p936
I2101
sS'guy'
p937
I61
sS'dip'
p938
I2102
sS'round'
p939
I795
sS"it'll"
p940
I1124
sS'shave'
p941
I2103
sS'prevent'
p942
I2104
sS'pork'
p943
I2105
sS'theives'
p944
I2106
sS'says'
p945
I34
sS'regret'
p946
I2107
sS'porn'
p947
I2108
sS'attic'
p948
I2109
sS'farted'
p949
I1274
sS'ow'
p950
I3236
sS'sign'
p951
I796
sS'slowed'
p952
I2111
sS'shirts'
p953
I2112
sS'run'
p954
I650
sS'bake'
p955
I2113
sS'chicken'
p956
I540
sS'substitute'
p957
I2115
sS'drinks'
p958
I605
sS'rapist'
p959
I2116
sS'boats'
p960
I2117
sS'stressful'
p961
I2118
sS'stands'
p962
I606
sS'movies'
p963
I2119
sS'beeming'
p964
I2120
sS'mister'
p965
I2333
sS'realizing'
p966
I1916
sS'melt'
p967
I1126
sS'supporter'
p968
I3361
sS'300'
p969
I3037
sS'hungry'
p970
I2123
sS'suspect'
p971
I2031
sS'goes'
p972
I108
sS'eaten'
p973
I2826
sS'reply'
p974
I2125
sS'filled'
p975
I481
sS'satisfy'
p976
I1128
sS'climbs'
p977
I2126
sS'funeral'
p978
I797
sS"'your"
p979
I2127
sS'french'
p980
I192
sS'water'
p981
I203
sS'fluke'
p982
I2129
sS'alone'
p983
I1129
sS'along'
p984
I2130
sS'teacher'
p985
I112
sS'change'
p986
I798
sS'wait'
p987
I482
sS'box'
p988
I270
sS'boy'
p989
I161
sS'dusts'
p990
I2131
sS'pearly'
p991
I799
sS'lazy'
p992
I2133
sS'root'
p993
I2134
sS'teaching'
p994
I2135
sS'wherever'
p995
I2136
sS'exiting'
p996
I2137
sS'trial'
p997
I2138
sS'bangs'
p998
I1130
sS'boo'
p999
I1131
sS'usually'
p1000
I1132
sS'janice'
p1001
I1133
sS'studies'
p1002
I2140
sS'lowers'
p1003
I2141
sS'motherfucking'
p1004
I2142
sS'love'
p1005
I176
sS'humanity'
p1006
I2143
sS'ethiopian'
p1007
I1533
sS'fake'
p1008
I1134
sS'marker'
p1009
I2145
sS"nick's"
p1010
I2146
sS'market'
p1011
I1135
sS'transplant'
p1012
I2147
sS'troops'
p1013
I2148
sS'working'
p1014
I483
sS'prove'
p1015
I801
sS'aye'
p1016
I2149
sS'super'
p1017
I596
sS'angry'
p1018
I484
sS'dude'
p1019
I2150
sS'only'
p1020
I164
sS'france'
p1021
I912
sS'live'
p1022
I607
sS'wood'
p1023
I2152
sS'prey'
p1024
I2153
sS'iphone'
p1025
I1138
sS'wondering'
p1026
I1139
sS'memory'
p1027
I2154
sS'films'
p1028
I2155
sS'tape'
p1029
I3367
sS'australian'
p1030
I1140
sS'today'
p1031
I271
sS'trophy'
p1032
I2157
sS'riot'
p1033
I2158
sS'club'
p1034
I2159
sS'laughs'
p1035
I2160
sS'acceptable'
p1036
I2161
sS'apparent'
p1037
I2162
sS'cashier'
p1038
I317
sS'chocolate'
p1039
I408
sS'employee'
p1040
I3368
sS'everywhere'
p1041
I802
sS"dad's"
p1042
I2971
sS'blinds'
p1043
I3154
sS'fly'
p1044
I1141
sS'dialed'
p1045
I1142
sS'car'
p1046
I193
sS'originally'
p1047
I1143
sS'cap'
p1048
I485
sS'soul'
p1049
I1144
sS'cat'
p1050
I2165
sS'soup'
p1051
I486
sS'hardest'
p1052
I803
sS"'honey'"
p1053
I2166
sS'can'
p1054
I75
sS"bb's"
p1055
I2167
sS'growing'
p1056
I2168
sS'making'
p1057
I804
sS'excitedly'
p1058
I1831
sS'laughter'
p1059
I2170
sS'samarium'
p1060
I3396
sS'geeky'
p1061
I2171
sS'heart'
p1062
I608
sS'crazy'
p1063
I2172
sS'valentines'
p1064
I315
sS'trump'
p1065
I177
sS'hears'
p1066
I609
sS'awesome'
p1067
I2173
sS"didn't"
p1068
I104
sS'confused'
p1069
I934
sS'topic'
p1070
I1391
sS'heard'
p1071
I354
sS'stroke'
p1072
I2175
sS'sued'
p1073
I3373
sS'chin'
p1074
I2177
sS'dropped'
p1075
I935
sS'allowed'
p1076
I2179
sS'hydrogen'
p1077
I2180
sS'swedish'
p1078
I2181
sS'indifferent'
p1079
I1669
sS'lingling'
p1080
I1146
sS'discussion'
p1081
I2184
sS'bonds'
p1082
I2185
sS'1'
I178
sS'sunday'
p1083
I1147
sS'pure'
p1084
I2186
sS'elephant'
p1085
I1148
sS'accessories'
p1086
I2187
sS"'queue"
p1087
I2188
sS'community'
p1088
I2189
sS'laundry'
p1089
I610
sS'maw'
p1090
I2190
sS'may'
p1091
I611
sS'fed'
p1092
I3039
sS'spot'
p1093
I2191
sS'levi'
p1094
I2192
sS'birthday'
p1095
I699
sS'mad'
p1096
I612
sS'date'
p1097
I487
sS'such'
p1098
I1149
sS'destructive'
p1099
I2194
sS'guys'
p1100
I409
sS'man'
p1101
I31
sS'branches'
p1102
I2195
sS'neck'
p1103
I383
sS'whenever'
p1104
I2196
sS'maybe'
p1105
I701
sS'wheelchair'
p1106
I2197
sS'exterminator'
p1107
I2198
sS'st'
p1108
I613
sS'q'
I355
sS'accelerated'
p1109
I1791
sS'so'
p1110
I28
sS'tall'
p1111
I807
sS'pulled'
p1112
I808
sS'talk'
p1113
I615
sS'cute'
p1114
I1150
sS'shoes'
p1115
I1479
sS'noteworthy'
p1116
I2201
sS'exclaimed'
p1117
I2202
sS'indeed'
p1118
I2203
sS"no'"
p1119
I2204
sS'sexually'
p1120
I3567
sS'years'
p1121
I141
sS'brain'
p1122
I960
sS'chickpea'
p1123
I2206
sS'nbsp'
p1124
I411
sS'cold'
p1125
I617
sS'still'
p1126
I194
sS'birds'
p1127
I1151
sS'pterodactyls'
p1128
I2207
sS'avid'
p1129
I2208
sS'police'
p1130
I318
sS'thank'
p1131
I809
sS"he's"
p1132
I142
sS'interesting'
p1133
I2209
sS'birthdays'
p1134
I1219
sS'amazing'
p1135
I2211
sS"he'd"
p1136
I488
sS'maid'
p1137
I2212
sS'window'
p1138
I489
sS'offers'
p1139
I2213
sS'suspicion'
p1140
I2214
sS'farmer'
p1141
I288
sS'mail'
p1142
I618
sS'main'
p1143
I2216
sS'into'
p1144
I52
sS'happened'
p1145
I490
sS'evacuated'
p1146
I3319
sS'non'
p1147
I2217
sS'lonely'
p1148
I2218
sS'halt'
p1149
I2219
sS'civilian'
p1150
I3459
sS'moms'
p1151
I2220
sS'hinting'
p1152
I2221
sS'killer'
p1153
I2222
sS'enthusiastic'
p1154
I3347
sS'menora'
p1155
I2349
sS'nation'
p1156
I2224
sS'interview'
p1157
I810
sS'half'
p1158
I1152
sS'not'
p1159
I54
sS'now'
p1160
I86
sS'killed'
p1161
I1153
sS"'bout"
p1162
I2225
sS'term'
p1163
I2226
sS'shouted'
p1164
I1154
sS'name'
p1165
I143
sS'stir'
p1166
I2227
sS'drop'
p1167
I811
sS'locked'
p1168
I2095
sS'wong'
p1169
I2228
sS'testing'
p1170
I2229
sS'rock'
p1171
I2230
sS'spiritualist'
p1172
I2231
sS'quarter'
p1173
I1155
sS'concerts'
p1174
I2232
sS'em'
p1175
I2233
sS'square'
p1176
I812
sS'fired'
p1177
I1156
sS"another's"
p1178
I2234
sS'ed'
p1179
I2235
sS'yeah'
p1180
I412
sS'polices'
p1181
I2236
sS'replay'
p1182
I2237
sS'year'
p1183
I289
sS'girl'
p1184
I113
sS'tifu'
p1185
I3056
sS'surprise'
p1186
I1728
sS'er'
p1187
I2238
sS"old's"
p1188
I2239
sS'living'
p1189
I2240
sS'canvas'
p1190
I2241
sS'opened'
p1191
I356
sS'3rd'
p1192
I2242
sS'space'
p1193
I1157
sS'tulips'
p1194
I2243
sS'factory'
p1195
I2244
sS'thirst'
p1196
I2245
sS'looking'
p1197
I357
sS'attracted'
p1198
I1158
sS'seriously'
p1199
I2246
sS'priest'
p1200
I137
sS"shouldn't"
p1201
I1159
sS'internet'
p1202
I2248
sS'brazilian'
p1203
I2525
sS'receiving'
p1204
I2249
sS'hcn'
p1205
I2250
sS'eagle'
p1206
I2251
sS'lgbtq'
p1207
I2252
sS'theory'
p1208
I2253
sS'prostitutes'
p1209
I2254
sS'cars'
p1210
I2255
sS'million'
p1211
I619
sS'boobs'
p1212
I620
sS"'63'"
p1213
I2256
sS'cart'
p1214
I1160
sS'quite'
p1215
I413
sS'shh'
p1216
I2982
sS'bumps'
p1217
I1624
sS'california'
p1218
I1161
sS'rebel'
p1219
I2259
sS'success'
p1220
I2260
sS'poems'
p1221
I2261
sS'card'
p1222
I493
sS'care'
p1223
I2262
sS'underwear'
p1224
I2263
sS'language'
p1225
I1162
sS'waiter'
p1226
I2264
sS'reposte'
p1227
I1663
sS"'hey"
p1228
I1163
sS'airhorn'
p1229
I1164
sS'turn'
p1230
I307
sS'place'
p1231
I414
sS'massive'
p1232
I1880
sS"get's"
p1233
I2267
sS'prefer'
p1234
I2144
sS'star'
p1235
I2268
sS'think'
p1236
I144
sS"jr's"
p1237
I945
sS'first'
p1238
I80
sS'blind'
p1239
I621
sS'cheese'
p1240
I1165
sS'lone'
p1241
I3061
sS'freudian'
p1242
I2270
sS'waves'
p1243
I1282
sS"anymore'"
p1244
I2271
sS'flipping'
p1245
I1166
sS'rounded'
p1246
I2215
sS'one'
p1247
I41
sS'americans'
p1248
I1167
sS'president'
p1249
I2273
sS'carry'
p1250
I1168
sS'corporations'
p1251
I2063
sS'message'
p1252
I623
sS'drove'
p1253
I494
sS'open'
p1254
I813
sS'tomorrow'
p1255
I814
sS"'em"
p1256
I1727
sS'size'
p1257
I1034
sS'sheep'
p1258
I2276
sS'little'
p1259
I114
sS'law'
p1260
I2277
sS'silent'
p1261
I1169
sS"valentine's"
p1262
I195
sS'caught'
p1263
I319
sS'anyone'
p1264
I465
sS'returns'
p1265
I2278
sS'2'
I291
sS"'i'll"
p1266
I2279
sS'convention'
p1267
I2280
sS'white'
p1268
I624
sS'friend'
p1269
I204
sS'gives'
p1270
I1171
sS'seduced'
p1271
I2281
sS'eyes'
p1272
I358
sS'copd'
p1273
I2283
sS'that'
p1274
I20
sS'breakfast'
p1275
I2305
sS'hillary'
p1276
I2286
sS'eyed'
p1277
I1172
sS'butt'
p1278
I815
sS'occurring'
p1279
I1967
sS'flowers'
p1280
I625
sS'than'
p1281
I196
sS"here's"
p1282
I2287
sS'boyfriend'
p1283
I1833
sS'11'
p1284
I1173
sS'10'
p1285
I471
sS'13'
p1286
I1174
sS'12'
p1287
I816
sS'15'
p1288
I626
sS'unfortunately'
p1289
I1643
sS'17'
p1290
I2291
sS'18'
p1291
I2292
sS'gotta'
p1292
I817
sS'shocktopus'
p1293
I2293
sS'r'
I1175
sS'were'
p1294
I69
sS'cards'
p1295
I1176
sS'janitor'
p1296
I2294
sS'russia'
p1297
I1873
sS'and'
p1298
I5
sS'distorter'
p1299
I2296
sS'troublesome'
p1300
I2297
sS'tasted'
p1301
I2298
sS'angel'
p1302
I359
sS'pro'
p1303
I2299
sS'confessed'
p1304
I1073
sS'turned'
p1305
I496
sS'argument'
p1306
I2301
sS'sad'
p1307
I818
sS'winding'
p1308
I2302
sS'say'
p1309
I98
sS'adele'
p1310
I1082
sS'buried'
p1311
I2304
sS'anger'
p1312
I1177
sS'sells'
p1313
I1914
sS'saw'
p1314
I163
sS'any'
p1315
I197
sS'superman'
p1316
I986
sS'deserted'
p1317
I2306
sS'hawaiian'
p1318
I3064
sS'cigarettes'
p1319
I2308
sS'thorny'
p1320
I2199
sS'translate'
p1321
I2309
sS'fucking'
p1322
I273
sS'answering'
p1323
I2311
sS'ideas'
p1324
I2312
sS'shocked'
p1325
I1178
sS'zoo'
p1326
I1179
sS'note'
p1327
I124
sS'take'
p1328
I272
sS'thermometer'
p1329
I1961
sS'destroy'
p1330
I2314
sS'vandals'
p1331
I2315
sS'concern'
p1332
I2364
sS'dips'
p1333
I3065
sS'200'
p1334
I2317
sS'begin'
p1335
I2318
sS'sure'
p1336
I320
sS'chromosomes'
p1337
I1982
sS'theatre'
p1338
I2320
sS'track'
p1339
I819
sS'knew'
p1340
I498
sS'phases'
p1341
I3392
sS'paid'
p1342
I2321
sS'falls'
p1343
I1180
sS'boiling'
p1344
I628
sS'wire'
p1345
I2323
sS'stormed'
p1346
I1181
sS'freshman'
p1347
I2011
sS'knee'
p1348
I820
sS'america'
p1349
I499
sS'lawn'
p1350
I2325
sS'especially'
p1351
I1182
sS'fills'
p1352
I2326
sS'average'
p1353
I821
sS'later'
p1354
I205
sS'drive'
p1355
I1015
sS'mrs'
p1356
I1374
sS"80's"
p1357
I1184
sS'salt'
p1358
I1185
sS'width'
p1359
I2328
sS'shop'
p1360
I822
sS'walking'
p1361
I321
sS'shot'
p1362
I1186
sS'show'
p1363
I360
sS'german'
p1364
I629
sS"sheeran's"
p1365
I2329
sS'recipe'
p1366
I2330
sS'trenches'
p1367
I3546
sS'discovered'
p1368
I1187
sS'therapist'
p1369
I2331
sS"joke's"
p1370
I2332
sS'pump'
p1371
I2368
sS'corner'
p1372
I500
sS'data'
p1373
I2139
sS'crane'
p1374
I2334
sS'ground'
p1375
I1188
sS'waited'
p1376
I2269
sS'slow'
p1377
I1189
sS'ratio'
p1378
I2335
sS'title'
p1379
I1190
sS'true'
p1380
I597
sS'dick'
p1381
I416
sS'gull'
p1382
I2336
sS'3'
I244
sS'either'
p1383
I2691
sS'tears'
p1384
I1137
sS'going'
p1385
I81
sS'black'
p1386
I179
sS'developed'
p1387
I2710
sS'outrage'
p1388
I2338
sS'watching'
p1389
I2339
sS'carolina'
p1390
I2340
sS'pastrami'
p1391
I2341
sS'get'
p1392
I53
sS'hostage'
p1393
I2342
sS'mayo'
p1394
I2343
sS'freezing'
p1395
I2344
sS'expectation'
p1396
I2345
sS'truly'
p1397
I824
sS'tens'
p1398
I3401
sS'state'
p1399
I2346
sS'procreation'
p1400
I2347
sS'lighter'
p1401
I1192
sS'celebrate'
p1402
I2348
sS'timepiece'
p1403
I2223
sS'floods'
p1404
I2350
sS'unfamiliar'
p1405
I2351
sS'cumin'
p1406
I2352
sS'morning'
p1407
I825
sS'naked'
p1408
I2353
sS'jokes'
p1409
I361
sS'stupid'
p1410
I826
sS'clowns'
p1411
I2354
sS'heisman'
p1412
I2355
sS'dough'
p1413
I2356
sS'finishing'
p1414
I2357
sS'bought'
p1415
I337
sS'where'
p1416
I165
sS'husband'
p1417
I292
sS'burst'
p1418
I2358
sS'signs'
p1419
I2359
sS'epileptical'
p1420
I2360
sS'seat'
p1421
I417
sS'connections'
p1422
I2361
sS'college'
p1423
I828
sS'parking'
p1424
I1193
sS'optometrist'
p1425
I2362
sS'calendar'
p1426
I1194
sS'ruined'
p1427
I2363
sS'wonder'
p1428
I627
sS'suspects'
p1429
I2365
sS'gags'
p1430
I2366
sS'ways'
p1431
I2367
sS'amen'
p1432
I3407
sS'enough'
p1433
I322
sS'abdomen'
p1434
I1679
sS'landline'
p1435
I2369
sS'between'
p1436
I293
sS'chews'
p1437
I2371
sS'reading'
p1438
I829
sS'across'
p1439
I630
sS'jumper'
p1440
I2373
sS'notice'
p1441
I631
sS'jobs'
p1442
I2374
sS'25'
p1443
I2375
sS'farts'
p1444
I830
sS'screen'
p1445
I2376
sS'planes'
p1446
I3076
sS'laced'
p1447
I2377
sS'jr'
p1448
I1195
sS'killing'
p1449
I2378
sS'blame'
p1450
I831
sS'awards'
p1451
I2379
sS'spitfire'
p1452
I2380
sS'hurts'
p1453
I2381
sS'coma'
p1454
I832
sS'article'
p1455
I2382
sS'trolling'
p1456
I2383
sS'come'
p1457
I115
sS'reaction'
p1458
I2384
sS'dates'
p1459
I1196
sS'rugby'
p1460
I418
sS'wanders'
p1461
I2385
sS'tuck'
p1462
I2386
sS'many'
p1463
I294
sS'region'
p1464
I3297
sS'according'
p1465
I2387
sS'restroom'
p1466
I632
sS's'
I839
sS'remake'
p1467
I2388
sS'reluctantly'
p1468
I2389
sS'testicular'
p1469
I2390
sS"can't"
p1470
I145
sS'cancer'
p1471
I633
sS'color'
p1472
I2391
sS'pot'
p1473
I634
sS'colony'
p1474
I2392
sS'twin'
p1475
I501
sS'jammed'
p1476
I2393
sS"couldn't"
p1477
I206
sS'supervisor'
p1478
I2394
sS'bizarre'
p1479
I2395
sS'boat'
p1480
I635
sS'esports'
p1481
I2397
sS'combines'
p1482
I2398
sS'cervical'
p1483
I2399
sS'capable'
p1484
I2400
sS'vacation'
p1485
I1199
sS'mark'
p1486
I2401
sS'breath'
p1487
I2402
sS'cecelia'
p1488
I1200
sS'scot'
p1489
I2403
sS'dictator'
p1490
I2404
sS'mars'
p1491
I2405
sS'chambered'
p1492
I2406
sS'helicopter'
p1493
I833
sS'mary'
p1494
I295
sS'wants'
p1495
I419
sS'direction'
p1496
I1201
sS'shopping'
p1497
I834
sS"what're"
p1498
I2408
sS'confuse'
p1499
I2409
sS'robbed'
p1500
I1202
sS'offered'
p1501
I2410
sS'blank'
p1502
I2860
sS'wounds'
p1503
I2411
sS'drawer'
p1504
I3211
sS'muscular'
p1505
I2043
sS'overdose'
p1506
I2413
sS'laying'
p1507
I2608
sS'everest'
p1508
I2044
sS'spirit'
p1509
I646
sS'those'
p1510
I296
sS'runnin'
p1511
I1249
sS'predicament'
p1512
I2414
sS'myself'
p1513
I503
sS'prehistoric'
p1514
I2415
sS"batman's"
p1515
I2603
sS'developing'
p1516
I2416
sS'these'
p1517
I198
sS'cash'
p1518
I1204
sS'premature'
p1519
I2417
sS'trick'
p1520
I2418
sS'cure'
p1521
I2419
sS'situation'
p1522
I1205
sS'cock'
p1523
I2421
sS'invited'
p1524
I2422
sS'shepard'
p1525
I2423
sS'eventually'
p1526
I2424
sS'coffee'
p1527
I2425
sS'sleeping'
p1528
I2671
sS'ribeye'
p1529
I2427
sS'middle'
p1530
I837
sS'someone'
p1531
I297
sS'minestrone'
p1532
I2428
sS'minds'
p1533
I3416
sS'yr'
p1534
I2726
sS'scavenges'
p1535
I1958
sS'litres'
p1536
I1207
sS'everyday'
p1537
I2430
sS'worry'
p1538
I1208
sS'sucking'
p1539
I3405
sS'shopkeeper'
p1540
I2432
sS'bags'
p1541
I2433
sS'different'
p1542
I324
sS'doctor'
p1543
I109
sS'pay'
p1544
I838
sS'granted'
p1545
I2434
sS'bowl'
p1546
I504
sS'amateurs'
p1547
I1198
sS'same'
p1548
I199
sS'check'
p1549
I350
sS'ya'
p1550
I1290
sS'otto'
p1551
I2436
sS'buys'
p1552
I1291
sS'stepped'
p1553
I1210
sS'pal'
p1554
I1211
sS'events'
p1555
I2438
sS'week'
p1556
I636
sS"trump's"
p1557
I325
sS'barbed'
p1558
I2439
sS'finish'
p1559
I840
sS'driver'
p1560
I326
sS'weed'
p1561
I2440
sS'producers'
p1562
I2441
sS'running'
p1563
I637
sS'plops'
p1564
I2442
sS'advertisement'
p1565
I2443
sS'totally'
p1566
I2064
sS'passing'
p1567
I3422
sS'complained'
p1568
I2447
sS'dotted'
p1569
I2050
sS'expression'
p1570
I2448
sS'no'
p1571
I56
sS'walls'
p1572
I2723
sS'without'
p1573
I362
sS'heils'
p1574
I2451
sS'comes'
p1575
I323
sS'bottle'
p1576
I639
sS'tutor'
p1577
I3432
sS'bodies'
p1578
I2453
sS'charged'
p1579
I1213
sS'gates'
p1580
I421
sS'being'
p1581
I207
sS'money'
p1582
I155
sS'actions'
p1583
I1214
sS'shouts'
p1584
I1215
sS'misuse'
p1585
I2454
sS'dehydration'
p1586
I2455
sS'wrecks'
p1587
I2456
sS'kill'
p1588
I505
sS'touch'
p1589
I506
sS'polish'
p1590
I2457
sS'speed'
p1591
I2458
sS'uttered'
p1592
I2459
sS'death'
p1593
I1216
sS'clueless'
p1594
I2460
sS'thinking'
p1595
I507
sS"we've"
p1596
I1217
sS'beagle'
p1597
I2462
sS'lets'
p1598
I2463
sS'4'
I327
sS'samples'
p1599
I2464
sS'heavier'
p1600
I2465
sS'real'
p1601
I422
sS'fucked'
p1602
I3470
sS'around'
p1603
I180
sS'kills'
p1604
I2466
sS'read'
p1605
I363
sS'ruler'
p1606
I2467
sS'mop'
p1607
I2468
sS'gonna'
p1608
I364
sS'amy'
p1609
I1265
sS'darn'
p1610
I2470
sS'mom'
p1611
I423
sS'world'
p1612
I681
sS'lady'
p1613
I253
sS'ottometrist'
p1614
I2472
sS'dare'
p1615
I907
sS'sails'
p1616
I3097
sS'towel'
p1617
I842
sS'everytime'
p1618
I2730
sS'greeting'
p1619
I1220
sS'circumcise'
p1620
I2205
sS'aaarrrrrrrrrrtificially'
p1621
I2476
sS'chamber'
p1622
I2477
sS'audience'
p1623
I844
sS'laughing'
p1624
I508
sS'completely'
p1625
I2478
sS'anti'
p1626
I2479
sS'downward'
p1627
I2480
sS'exposed'
p1628
I3060
sS'competition'
p1629
I2482
sS"smokin'"
p1630
I2484
sS"members'"
p1631
I2486
sS'thinks'
p1632
I509
sS'gross'
p1633
I2488
sS'nazi'
p1634
I1915
sS'stops'
p1635
I1221
sS'conservative'
p1636
I2489
sS'dealership'
p1637
I2490
sS'provides'
p1638
I2491
sS"'excellent"
p1639
I2061
sS'911'
p1640
I1223
sS'freed'
p1641
I2492
sS'felt'
p1642
I2493
sS'business'
p1643
I424
sS'poem'
p1644
I2494
sS'seconds'
p1645
I2495
sS'each'
p1646
I640
sS'nudist'
p1647
I2496
sS'broken'
p1648
I1224
sS'strainer'
p1649
I2497
sS'frenchman'
p1650
I560
sS'earlier'
p1651
I2498
sS'on'
p1652
I18
sS'stone'
p1653
I2499
sS'ok'
p1654
I425
sS'oj'
p1655
I2500
sS'ace'
p1656
I2501
sS'oh'
p1657
I102
sS'of'
p1658
I11
sS'dyslexic'
p1659
I2502
sS'favorite'
p1660
I328
sS'meal'
p1661
I2503
sS'deathbed'
p1662
I2504
sS'stand'
p1663
I426
sS'neighbor'
p1664
I847
sS'testimony'
p1665
I2505
sS'sadistic'
p1666
I2506
sS'threesome'
p1667
I2507
sS'stank'
p1668
I2508
sS'bond'
p1669
I2509
sS'or'
p1670
I110
sS'road'
p1671
I181
sS'op'
p1672
I2510
sS'tribe'
p1673
I1225
sS'ladies'
p1674
I1226
sS'cambridge'
p1675
I1227
sS'communication'
p1676
I2511
sS'rome'
p1677
I3568
sS'legged'
p1678
I641
sS'cursed'
p1679
I2512
sS'commiting'
p1680
I2513
sS'rising'
p1681
I2514
sS'determine'
p1682
I2515
sS'heated'
p1683
I2516
sS'operator'
p1684
I2517
sS'claus'
p1685
I3099
sS'snowmen'
p1686
I2519
sS'your'
p1687
I65
sS'pirates'
p1688
I1170
sS'stare'
p1689
I2521
sS'her'
p1690
I23
sS'shells'
p1691
I1228
sS'whales'
p1692
I2522
sS'there'
p1693
I73
sS'hey'
p1694
I224
sS'sides'
p1695
I2523
sS'start'
p1696
I642
sS'parachute'
p1697
I2174
sS'cats'
p1698
I1229
sS'racist'
p1699
I1230
sS'low'
p1700
I1231
sS'lot'
p1701
I427
sS'jaws'
p1702
I1509
sS'seasoned'
p1703
I3434
sS'valley'
p1704
I2527
sS'bubble'
p1705
I2528
sS'circumcised'
p1706
I1232
sS'whooops'
p1707
I2529
sS'hookers'
p1708
I1233
sS'jacked'
p1709
I2530
sS'furthest'
p1710
I2531
sS'locks'
p1711
I2532
sS'wiping'
p1712
I2533
sS'ended'
p1713
I848
sS'reeeeeeal'
p1714
I2534
sS'walkway'
p1715
I2535
sS'happier'
p1716
I2536
sS'pitched'
p1717
I2537
sS'trying'
p1718
I428
sS'with'
p1719
I22
sS'corduroy'
p1720
I2538
sS'longer'
p1721
I1112
sS"they're"
p1722
I182
sS'rush'
p1723
I1235
sS'cacti'
p1724
I2539
sS'arranged'
p1725
I2540
sS'naming'
p1726
I3572
sS'celebrating'
p1727
I2541
sS"wasn't"
p1728
I365
sS'ember'
p1729
I2542
sS'esteem'
p1730
I2544
sS'dirty'
p1731
I2545
sS'suitcase'
p1732
I1236
sS'grass'
p1733
I643
sS'builders'
p1734
I2546
sS'agree'
p1735
I1237
sS'wrestlers'
p1736
I2548
sS'gone'
p1737
I429
sS'hellman'
p1738
I2549
sS'ad'
p1739
I2550
sS'johnny'
p1740
I510
sS'taste'
p1741
I1053
sS'ah'
p1742
I2553
sS'forgot'
p1743
I849
sS'am'
p1744
I225
sS'deep'
p1745
I2554
sS'fellow'
p1746
I964
sS'interstate'
p1747
I2555
sS'as'
p1748
I47
sS'at'
p1749
I43
sS'walks'
p1750
I134
sS'girlfriend'
p1751
I245
sS'politics'
p1752
I967
sS'horse'
p1753
I2557
sS'cables'
p1754
I2558
sS'film'
p1755
I2559
sS'again'
p1756
I125
sS'spice'
p1757
I3370
sS'rubbed'
p1758
I850
sS'tyrannosaurus'
p1759
I2560
sS'idiot'
p1760
I2561
sS'drivers'
p1761
I1238
sS'diarrhea'
p1762
I1239
sS'repent'
p1763
I2562
sS'insurance'
p1764
I2741
sS'field'
p1765
I972
sS'5'
I208
sS'gambling'
p1766
I2564
sS'you'
p1767
I9
sS'thousand'
p1768
I2565
sS'trelleborg'
p1769
I2566
sS'poor'
p1770
I511
sS'requested'
p1771
I2567
sS'pillows'
p1772
I2568
sS'obsessed'
p1773
I2569
sS'students'
p1774
I1240
sS'time'
p1775
I74
sS'gifts'
p1776
I2571
sS'walker'
p1777
I2572
sS'flower'
p1778
I2743
sS'poof'
p1779
I1242
sS"she's"
p1780
I475
sS'included'
p1781
I2573
sS'pool'
p1782
I1243
sS'building'
p1783
I430
sS'remote'
p1784
I2574
sS'calls'
p1785
I1244
sS'wife'
p1786
I55
sS'sobbing'
p1787
I1932
sS"life's"
p1788
I2576
sS'wifi'
p1789
I2577
sS'u'
I2578
sS'alright'
p1790
I644
sS'cpr'
p1791
I2579
sS'once'
p1792
I234
sS'starting'
p1793
I2580
sS'all'
p1794
I57
sS'forget'
p1795
I2581
sS'chinese'
p1796
I246
sS'ali'
p1797
I2582
sS'caused'
p1798
I2583
sS'dollar'
p1799
I1245
sS'month'
p1800
I853
sS'subtle'
p1801
I3152
sS'bulb'
p1802
I2584
sS'talks'
p1803
I1599
sS'follow'
p1804
I1246
sS'alt'
p1805
I1247
sS'liam'
p1806
I1672
sS'children'
p1807
I645
sS'causes'
p1808
I2587
sS'antoinette'
p1809
I2588
sS'synthetic'
p1810
I2589
sS'apartment'
p1811
I1616
sS'catastrophe'
p1812
I2590
sS'tv'
p1813
I854
sS'provisions'
p1814
I3501
sS'laid'
p1815
I2592
sS'thursday'
p1816
I2593
sS'former'
p1817
I1203
sS'riots'
p1818
I2594
sS'to'
p1819
I6
sS'chewing'
p1820
I2487
sS'smile'
p1821
I647
sS'enjoying'
p1822
I2596
sS'hideous'
p1823
I2597
sS'oveerrr'
p1824
I2598
sS'sound'
p1825
I502
sS'fax'
p1826
I2599
sS'woman'
p1827
I92
sS'worse'
p1828
I2600
sS'sitting'
p1829
I247
sS'very'
p1830
I146
sS'swallows'
p1831
I2601
sS'tent'
p1832
I1250
sS'fat'
p1833
I855
sS'worst'
p1834
I1251
sS'decide'
p1835
I1252
sS'fall'
p1836
I1691
sS'difference'
p1837
I298
sS'condition'
p1838
I2602
sS'trigger'
p1839
I3548
sS'highways'
p1840
I2604
sS'heaven'
p1841
I431
sS'dictatorship'
p1842
I2605
sS'gf'
p1843
I3119
sS'angus'
p1844
I2606
sS'pences'
p1845
I2607
sS'list'
p1846
I1571
sS'grandfather'
p1847
I2609
sS'large'
p1848
I856
sS'dinosaur'
p1849
I2610
sS'sand'
p1850
I1253
sS'lesbians'
p1851
I2611
sS'harry'
p1852
I2612
sS'small'
p1853
I648
sS'anal'
p1854
I2613
sS"i'll"
p1855
I209
sS'population'
p1856
I2614
sS'ten'
p1857
I742
sS'tea'
p1858
I649
sS'ted'
p1859
I857
sS'past'
p1860
I1255
sS'winds'
p1861
I1256
sS'rate'
p1862
I512
sS'design'
p1863
I1257
sS'enhancement'
p1864
I2615
sS'lawyer'
p1865
I1258
sS'pass'
p1866
I858
sS'investment'
p1867
I2616
sS'johannson'
p1868
I2617
sS'what'
p1869
I21
sS'stood'
p1870
I2618
sS'sub'
p1871
I1259
sS'clock'
p1872
I2619
sS'nana'
p1873
I2620
sS'sun'
p1874
I1260
sS'sum'
p1875
I2621
sS'ticks'
p1876
I1261
sS'stool'
p1877
I859
sS'brief'
p1878
I1049
sS'witnesses'
p1879
I2622
sS'fava'
p1880
I1732
sS'jedi'
p1881
I2623
sS'udderly'
p1882
I2624
sS'scientists'
p1883
I2625
sS'nurse'
p1884
I860
sS'wham'
p1885
I2626
sS'racing'
p1886
I861
sS'guns'
p1887
I1264
sS'movement'
p1888
I2628
sS'edited'
p1889
I2629
sS'full'
p1890
I432
sS"c'mon"
p1891
I2630
sS'coworkers'
p1892
I2631
sS'litters'
p1893
I2632
sS'ballet'
p1894
I2634
sS'answers'
p1895
I862
sS'forgive'
p1896
I2635
sS'hours'
p1897
I367
sS'tracks'
p1898
I2636
sS'counterplay'
p1899
I3343
sS'strong'
p1900
I368
sS'tragedy'
p1901
I2638
sS"nobody's"
p1902
I2640
sS'ahead'
p1903
I1266
sS'vegetarian'
p1904
I2641
sS'allows'
p1905
I2642
sS'soldier'
p1906
I2643
sS'airport'
p1907
I2644
sS'periodic'
p1908
I2645
sS'horrified'
p1909
I2646
sS'pick'
p1910
I1267
sS'action'
p1911
I2647
sS"would've"
p1912
I2648
sS'exited'
p1913
I2649
sS'sticking'
p1914
I2650
sS'tiananmen'
p1915
I2651
sS'pumped'
p1916
I3560
sS'cardone'
p1917
I2652
sS'family'
p1918
I248
sS'suddenly'
p1919
I369
sS'caravan'
p1920
I1268
sS'africa'
p1921
I1092
sS'emptied'
p1922
I2654
sS'ask'
p1923
I300
sS'semester'
p1924
I1269
sS'icelander'
p1925
I1270
sS"leatherface's"
p1926
I2655
sS"sister's"
p1927
I2656
sS'eye'
p1928
I1271
sS'takes'
p1929
I370
sS'0'
I2086
sS'intense'
p1930
I2151
sS'oak'
p1931
I3485
sS'determined'
p1932
I3360
sS'two'
p1933
I70
sS'pears'
p1934
I2657
sS'pearl'
p1935
I2658
sS'6'
I651
sS'treesome'
p1936
I2659
sS'megaphone'
p1937
I2660
sS'wipes'
p1938
I2661
sS'mickydolenzes'
p1939
I2662
sS'more'
p1940
I183
sS'horses'
p1941
I2663
sS'flat'
p1942
I2664
sS'israel'
p1943
I2665
sS'diamond'
p1944
I2666
sS'door'
p1945
I166
sS'knows'
p1946
I513
sS'company'
p1947
I1272
sS'putin'
p1948
I2738
sS'yolanda'
p1949
I2667
sS'landed'
p1950
I2073
sS"ain't"
p1951
I2669
sS'broke'
p1952
I1273
sS'known'
p1953
I2670
sS'gold'
p1954
I3123
sS'krill'
p1955
I2672
sS'town'
p1956
I865
sS'grill'
p1957
I603
sS'hour'
p1958
I866
sS'science'
p1959
I2674
sS'sucks'
p1960
I1026
sS'knocker'
p1961
I2675
sS'offended'
p1962
I1275
sS'remain'
p1963
I2676
sS'scarlett'
p1964
I3129
sS'greeted'
p1965
I2677
sS'learn'
p1966
I868
sS'knocked'
p1967
I2678
sS'seagull'
p1968
I1276
sS'male'
p1969
I2679
sS'def'
p1970
I2680
sS'history'
p1971
I2681
sS'beautiful'
p1972
I1277
sS'nervousness'
p1973
I3130
sS'pushes'
p1974
I2682
sS'rejuvenated'
p1975
I2683
sS'joints'
p1976
I2684
sS'states'
p1977
I869
sS'pushed'
p1978
I652
sS'breathing'
p1979
I3131
sS'numbers'
p1980
I1278
sS'sense'
p1981
I1279
sS'cows'
p1982
I371
sS'phrase'
p1983
I2685
sS'species'
p1984
I1280
sS'huge'
p1985
I870
sS'needs'
p1986
I1281
sS'beef'
p1987
I2686
sS'rather'
p1988
I871
sS'breaking'
p1989
I653
sS'bologna'
p1990
I2687
sS'stayed'
p1991
I2182
sS'hillaryous'
p1992
I2689
sS'explains'
p1993
I872
sS'goat'
p1994
I2690
sS'conceived'
p1995
I2751
sS'waved'
p1996
I2692
sS'blacked'
p1997
I2693
sS'plant'
p1998
I2694
sS'sandwich'
p1999
I655
sS'tried'
p2000
I656
sS'rude'
p2001
I2695
sS'algebra'
p2002
I2696
sS'advice'
p2003
I2697
sS'soda'
p2004
I2698
sS'mapping'
p2005
I2699
sS'tries'
p2006
I2700
sS'plane'
p2007
I2701
sS'blood'
p2008
I873
sS'coming'
p2009
I415
sS'authentic'
p2010
I2702
sS'response'
p2011
I2703
sS'snowflakes'
p2012
I2704
sS'a'
I4
sS'short'
p2013
I657
sS'susan'
p2014
I2705
sS'leroy'
p2015
I433
sS'shady'
p2016
I2706
sS'register'
p2017
I2707
sS'eats'
p2018
I434
sS"'what"
p2019
I514
sS'discussing'
p2020
I2265
sS'eating'
p2021
I3034
sS'shade'
p2022
I2708
sS'banks'
p2023
I2709
sS'putting'
p2024
I690
sS'playing'
p2025
I659
sS"that's"
p2026
I87
sS'replied'
p2027
I226
sS'mexican'
p2028
I874
sS'help'
p2029
I227
sS"don't"
p2030
I71
sS"'okay"
p2031
I3468
sS'john'
p2032
I2370
sS'soon'
p2033
I875
sS"'i've"
p2034
I2711
sS"authorities'"
p2035
I2712
sS'paper'
p2036
I1535
sS'through'
p2037
I228
sS'lava'
p2038
I2435
sS'replies'
p2039
I126
sS'hell'
p2040
I515
sS'its'
p2041
I516
sS'messed'
p2042
I1284
sS'26'
p2043
I1285
sS'20'
p2044
I517
sS'21'
p2045
I2714
sS'pray'
p2046
I2715
sS'actually'
p2047
I1286
sS'late'
p2048
I1287
sS'parts'
p2049
I1511
sS'soccer'
p2050
I2716
sS'might'
p2051
I877
sS"haven't"
p2052
I1288
sS'fool'
p2053
I2717
sS'cee'
p2054
I2718
sS'good'
p2055
I249
sS'groping'
p2056
I2431
sS'yo'
p2057
I2720
sS'food'
p2058
I420
sS'propose'
p2059
I1414
sS'agitated'
p2060
I2437
sS'noticing'
p2061
I2722
sS'speechless'
p2062
I2445
sS'peeing'
p2063
I1293
sS'addickted'
p2064
I2450
sS'shitless'
p2065
I2633
sS'benelli'
p2066
I2805
sS'milestone'
p2067
I2725
sS'foot'
p2068
I1294
sS'iranians'
p2069
I1647
sS'complain'
p2070
I1295
sS'bigger'
p2071
I2727
sS'easily'
p2072
I1296
sS'erection'
p2073
I2728
sS'plagueis'
p2074
I2729
sS'pregnant'
p2075
I843
sS'always'
p2076
I210
sS'spy'
p2077
I3180
sS'harbor'
p2078
I3141
sS'token'
p2079
I2732
sS'stopped'
p2080
I1297
sS'objects'
p2081
I3170
sS'die'
p2082
I407
sS'found'
p2083
I250
sS'residing'
p2084
I3464
sS'notes'
p2085
I3143
sS"isn't"
p2086
I518
sS'heavy'
p2087
I2461
sS'everyone'
p2088
I299
sS'upstairs'
p2089
I755
sS'twosome'
p2090
I2736
sS'house'
p2091
I156
sS'fish'
p2092
I251
sS'hard'
p2093
I167
sS'idea'
p2094
I519
sS'brother'
p2095
I793
sS"wallentine's"
p2096
I2737
sS'ball'
p2097
I1512
sS'trannies'
p2098
I2739
sS'levee'
p2099
I2740
sS'event'
p2100
I2563
sS'really'
p2101
I135
sS'deals'
p2102
I2653
sS"it'"
p2103
I2721
sS'wondered'
p2104
I1298
sS'item'
p2105
I1299
sS'miss'
p2106
I2780
sS'since'
p2107
I660
sS'receptions'
p2108
I2745
sS'research'
p2109
I2746
sS'everyones'
p2110
I2586
sS'race'
p2111
I1399
sS'safety'
p2112
I2747
sS'7'
I393
sS'bends'
p2113
I2749
sS'highway'
p2114
I1301
sS'ass'
p2115
I661
sS'pun'
p2116
I2750
sS'bald'
p2117
I1730
sS'mance'
p2118
I2752
sS'pathetic'
p2119
I2753
sS'dirt'
p2120
I878
sS'upon'
p2121
I3466
sS'story'
p2122
I1302
sS'pub'
p2123
I1303
sS'houses'
p2124
I2755
sS'reason'
p2125
I662
sS'bursts'
p2126
I2756
sS'cookie'
p2127
I2757
sS'asf'
p2128
I2758
sS'members'
p2129
I2759
sS'imagine'
p2130
I2760
sS'put'
p2131
I329
sS'attendant'
p2132
I1304
sS'sidewalk'
p2133
I2761
sS'chemists'
p2134
I3270
sS"'round"
p2135
I1924
sS'thrown'
p2136
I2762
sS'bumped'
p2137
I2763
sS'computers'
p2138
I2764
sS'terrible'
p2139
I1305
sS'american'
p2140
I211
sS'wither'
p2141
I2765
sS'expecting'
p2142
I2766
sS'w'
I2767
sS'twenty'
p2143
I2785
sS'interviews'
p2144
I2786
sS'arose'
p2145
I2768
sS'feed'
p2146
I2769
sS'major'
p2147
I2770
sS'superbowl'
p2148
I2771
sS'dont'
p2149
I2772
sS'upper'
p2150
I2773
sS'feel'
p2151
I373
sS'number'
p2152
I1292
sS'fancy'
p2153
I881
sS'valentine'
p2154
I663
sS'feet'
p2155
I2775
sS'fierce'
p2156
I2776
sS'talked'
p2157
I2777
sS'done'
p2158
I664
sS'dong'
p2159
I2778
sS'spynach'
p2160
I2779
sS'traveler'
p2161
I882
sS'warts'
p2162
I2744
sS"you'd"
p2163
I3148
sS'passes'
p2164
I883
sS'guess'
p2165
I884
sS'heads'
p2166
I1307
sS'temperature'
p2167
I879
sS'cavewoman'
p2168
I2783
sS'dihydrogen'
p2169
I2784
sS'dishonorably'
p2170
I2446
sS'sandusky'
p2171
I1306
sS'least'
p2172
I665
sS'stork'
p2173
I885
sS'paint'
p2174
I886
sS'station'
p2175
I520
sS'passed'
p2176
I521
sS'sigh'
p2177
I2110
sS'hundred'
p2178
I887
sS'store'
p2179
I374
sS'selling'
p2180
I1308
sS'warmly'
p2181
I2789
sS'relationship'
p2182
I1309
sS'behind'
p2183
I888
sS'relieved'
p2184
I2790
sS'checklist'
p2185
I2791
sS'hotel'
p2186
I1310
sS'park'
p2187
I2792
sS'veteran'
p2188
I2310
sS'appreciation'
p2189
I1311
sS'luckily'
p2190
I2793
sS'part'
p2191
I666
sS'rifle'
p2192
I2794
sS'interviewer'
p2193
I304
sS'swingers'
p2194
I2795
sS'center'
p2195
I3473
sS'king'
p2196
I2796
sS'grocery'
p2197
I1325
sS'grew'
p2198
I1369
sS'vial'
p2199
I2798
sS'grey'
p2200
I2799
sS'scandinavian'
p2201
I2800
sS'colander'
p2202
I1813
sS'bride'
p2203
I2885
sS'stall'
p2204
I2802
sS'dank'
p2205
I2518
sS'supposed'
p2206
I1312
sS'dane'
p2207
I2804
sS'toward'
p2208
I1313
sS'cleaner'
p2209
I1314
sS'confessional'
p2210
I1397
sS'fights'
p2211
I2806
sS'orders'
p2212
I1315
sS'sell'
p2213
I889
sS'built'
p2214
I2807
sS'crazyrussianhacker'
p2215
I2808
sS'dancing'
p2216
I2809
sS'trip'
p2217
I2810
sS'self'
p2218
I2811
sS'trapped'
p2219
I2812
sS'couch'
p2220
I2813
sS'freakishly'
p2221
I2814
sS'also'
p2222
I232
sS'build'
p2223
I1316
sS'finding'
p2224
I1317
sS'puffing'
p2225
I1318
sS'fella'
p2226
I2816
sS'relief'
p2227
I2817
sS'towards'
p2228
I2818
sS'godfather'
p2229
I2819
sS'warnings'
p2230
I2820
sS'2mile'
p2231
I1561
sS'eater'
p2232
I2788
sS'reach'
p2233
I2823
sS'pondering'
p2234
I2824
sS'most'
p2235
I302
sS'plan'
p2236
I2825
sS"'cause"
p2237
I2285
sS'70'
p2238
I1319
sS'nothing'
p2239
I303
sS'accepting'
p2240
I2827
sS'measured'
p2241
I2828
sS'splat'
p2242
I2829
sS'refrigerator'
p2243
I2830
sS'appear'
p2244
I2831
sS'forgets'
p2245
I3032
sS"30's"
p2246
I1320
sS'grams'
p2247
I1321
sS'kd'
p2248
I2832
sS'windows'
p2249
I1376
sS'soviet'
p2250
I3478
sS'clear'
p2251
I1322
sS'sometimes'
p2252
I667
sS'amazed'
p2253
I2835
sS'stones'
p2254
I2836
sS'stoner'
p2255
I2837
sS'vinnie'
p2256
I2838
sS'stunned'
p2257
I2839
sS'doctors'
p2258
I2840
sS'aghast'
p2259
I2841
sS'mimed'
p2260
I2842
sS'booze'
p2261
I2843
sS'stoned'
p2262
I668
sS'carefully'
p2263
I2844
sS'headlines'
p2264
I2845
sS'heavens'
p2265
I2846
sS'fine'
p2266
I891
sS'find'
p2267
I230
sS'raaaaaawwwww'
p2268
I2847
sS'giant'
p2269
I1323
sS'believe'
p2270
I436
sS'nevertheless'
p2271
I3475
sS'nervous'
p2272
I2849
sS'firewood'
p2273
I2850
sS'failed'
p2274
I3188
sS'viagra'
p2275
I669
sS'condom'
p2276
I1035
sS'feminists'
p2277
I2852
sS'lennon'
p2278
I2124
sS'loved'
p2279
I2854
sS'boarding'
p2280
I2855
sS'his'
p2281
I15
sS'hit'
p2282
I2856
sS'therefore'
p2283
I1641
sS'beams'
p2284
I2857
sS'007'
p2285
I1750
sS'kind'
p2286
I301
sS'upside'
p2287
I2859
sS'eggs'
p2288
I2822
sS'hia'
p2289
I2861
sS'feels'
p2290
I2862
sS'b'
I2797
sS'longest'
p2291
I1326
sS'pretending'
p2292
I2864
sS'compass'
p2293
I1327
sS'during'
p2294
I437
sS'him'
p2295
I44
sS'restart'
p2296
I2865
sS'noises'
p2297
I2866
sS'sleeve'
p2298
I2867
sS'cry'
p2299
I1328
sS'harassing'
p2300
I2005
sS'gloves'
p2301
I2869
sS'common'
p2302
I892
sS'switzerland'
p2303
I1330
sS'x'
I893
sS'river'
p2304
I670
sS'snowstorm'
p2305
I2870
sS'wrote'
p2306
I894
sS'narvik'
p2307
I2871
sS'bars'
p2308
I2872
sS'set'
p2309
I895
sS'art'
p2310
I1331
sS'cripflip'
p2311
I2873
sS'dump'
p2312
I2874
sS'throwing'
p2313
I2875
sS'uses'
p2314
I2963
sS'cleavage'
p2315
I3384
sS'tended'
p2316
I2876
sS'sex'
p2317
I157
sS'culture'
p2318
I2877
sS'see'
p2319
I99
sS'are'
p2320
I25
sS'sea'
p2321
I2879
sS"principal's"
p2322
I2880
sS'close'
p2323
I1332
sS'11th'
p2324
I2881
sS'arm'
p2325
I896
sS'sportswear'
p2326
I1333
sS'outrageous'
p2327
I2801
sS'termites'
p2328
I2884
sS'stuck'
p2329
I3305
sS'movie'
p2330
I1334
sS'wow'
p2331
I1335
sS'leg'
p2332
I1407
sS'please'
p2333
I438
sS'aviary'
p2334
I2886
sS'pickup'
p2335
I2887
sS'won'
p2336
I897
sS'probably'
p2337
I330
sS'lowered'
p2338
I3351
sS'donate'
p2339
I898
sS'conditions'
p2340
I2888
sS'compliment'
p2341
I2889
sS'available'
p2342
I1337
sS'screeched'
p2343
I2890
sS'genes'
p2344
I2891
sS'recently'
p2345
I671
sS'missing'
p2346
I2892
sS'silicone'
p2347
I2893
sS'sold'
p2348
I672
sS'attention'
p2349
I1338
sS'overvalued'
p2350
I3168
sS'spray'
p2351
I2895
sS'invisible'
p2352
I2896
sS'abruptly'
p2353
I2898
sS'both'
p2354
I305
sS'c'
I2899
sS'feeling'
p2355
I745
sS'last'
p2356
I252
sS'perplexed'
p2357
I3438
sS"wouldn't"
p2358
I331
sS'barely'
p2359
I2900
sS'onion'
p2360
I2901
sS'minorities'
p2361
I2902
sS'mcdonald'
p2362
I2017
sS'connection'
p2363
I2904
sS'became'
p2364
I1828
sS'winchman'
p2365
I2906
sS'rose'
p2366
I2907
sS'whole'
p2367
I1340
sS'finds'
p2368
I523
sS'load'
p2369
I375
sS'cakes'
p2370
I1000
sS'jeff'
p2371
I993
sS'simple'
p2372
I1341
sS'sweet'
p2373
I1342
sS'recycling'
p2374
I673
sS'whatever'
p2375
I524
sS'hollow'
p2376
I2909
sS'simply'
p2377
I2910
sS'likes'
p2378
I1343
sS'church'
p2379
I674
sS'vessel'
p2380
I1344
sS'tonto'
p2381
I2911
sS'throughout'
p2382
I2912
sS'expensive'
p2383
I2913
sS'belt'
p2384
I2914
sS'ps'
p2385
I2915
sS'devil'
p2386
I525
sS'raise'
p2387
I1345
sS'scented'
p2388
I2917
sS'due'
p2389
I2918
sS'appears'
p2390
I1346
sS'hitting'
p2391
I2919
sS'secret'
p2392
I2920
sS"'impossible"
p2393
I2921
sS'damn'
p2394
I675
sS'amnesia'
p2395
I1544
sS'maintenance'
p2396
I2923
sS'brick'
p2397
I2924
sS'meeting'
p2398
I2925
sS'empty'
p2399
I554
sS'humping'
p2400
I2926
sS'firm'
p2401
I1347
sS'lived'
p2402
I2927
sS'flight'
p2403
I676
sS'delegations'
p2404
I3497
sS'gay'
p2405
I526
sS'fire'
p2406
I377
sS"what's"
p2407
I84
sS'gas'
p2408
I2929
sS'enroll'
p2409
I2930
sS'else'
p2410
I677
sS'fund'
p2411
I2931
sS'hurtling'
p2412
I2932
sS'understand'
p2413
I332
sS'eli5'
p2414
I3474
sS'opposites'
p2415
I2933
sS'wedding'
p2416
I1372
sS'wheeled'
p2417
I720
sS"40's"
p2418
I1348
sS'stolen'
p2419
I2936
sS'look'
p2420
I168
sS'straight'
p2421
I900
sS'bill'
p2422
I231
sS'grainy'
p2423
I2937
sS'brilliant'
p2424
I2938
sS'while'
p2425
I158
sS'accidently'
p2426
I2939
sS'kick'
p2427
I2940
sS'behavior'
p2428
I1613
sS'tourrettes'
p2429
I1928
sS'kissing'
p2430
I1349
sS'robin'
p2431
I2944
sS'pack'
p2432
I2945
sS'owed'
p2433
I2946
sS'tests'
p2434
I3500
sS'leans'
p2435
I678
sS'encountered'
p2436
I2947
sS'decoration'
p2437
I2948
sS'itself'
p2438
I2949
sS'ready'
p2439
I901
sS'rig'
p2440
I2950
sS'hellos'
p2441
I2951
sS'audi'
p2442
I1350
sS'funny'
p2443
I439
sS'shirt'
p2444
I527
sS'anymore'
p2445
I1351
sS'grant'
p2446
I1352
sS'grand'
p2447
I2952
sS'9'
I679
sS'descended'
p2448
I2953
sS'eww'
p2449
I2954
sS'higher'
p2450
I2955
sS'development'
p2451
I2956
sS"jehovah's"
p2452
I2957
sS'used'
p2453
I333
sS'knitting'
p2454
I902
sS'snail'
p2455
I2958
sS'keys'
p2456
I2959
sS'yesterday'
p2457
I2960
sS'crushed'
p2458
I3502
sS'existent'
p2459
I2962
sS'moment'
p2460
I378
sS'000'
p2461
I903
sS'moving'
p2462
I845
sS'cleaning'
p2463
I2964
sS'birch'
p2464
I2965
sS"might've"
p2465
I2966
sS"'what's"
p2466
I1354
sS'weird'
p2467
I2967
sS'sumo'
p2468
I2444
sS'older'
p2469
I2970
sS'anxious'
p2470
I2742
sS'depending'
p2471
I2972
sS'chickens'
p2472
I746
sS'spent'
p2473
I680
sS'dared'
p2474
I1676
sS'person'
p2475
I904
sS'moby'
p2476
I1793
sS'strobe'
p2477
I2976
sS'y'
I1355
sS'deli'
p2478
I2977
sS'chemistry'
p2479
I905
sS'dark'
p2480
I2469
sS'spend'
p2481
I1356
sS'scouring'
p2482
I2978
sS'soaked'
p2483
I2979
sS'exploits'
p2484
I2980
sS'politely'
p2485
I1357
sS'camel'
p2486
I3484
sS'telegram'
p2487
I2981
sS"d'ya"
p2488
I906
sS'questions'
p2489
I2984
sS'using'
p2490
I1218
sS'alternative'
p2491
I2985
sS'continent'
p2492
I2986
sS'letting'
p2493
I1037
sS'cut'
p2494
I2987
sS'cus'
p2495
I2988
sS'observant'
p2496
I1872
sS'disappointed'
p2497
I2471
sS'cuz'
p2498
I2989
sS'aloha'
p2499
I2990
sS"samsung's"
p2500
I2991
sS'cherries'
p2501
I2992
sS'parents'
p2502
I682
sS'grin'
p2503
I2473
sS'crying'
p2504
I2993
sS'easter'
p2505
I2995
sS'remaining'
p2506
I2897
sS'surprised'
p2507
I529
sS'customers'
p2508
I2997
sS'march'
p2509
I2998
sS'complains'
p2510
I2999
sS'demands'
p2511
I3000
sS'big'
p2512
I233
sS'couple'
p2513
I212
sS'jerked'
p2514
I3001
sS"'jesus"
p2515
I2274
sS'game'
p2516
I1359
sS'bit'
p2517
I440
sS'infadeles'
p2518
I1850
sS'moody'
p2519
I3003
sS'knock'
p2520
I530
sS'outright'
p2521
I3004
sS'seperate'
p2522
I3005
sS'd'
I683
sS'semi'
p2523
I3006
sS'follows'
p2524
I3007
sS"m'y"
p2525
I3008
sS'eel'
p2526
I3009
sS'continue'
p2527
I3010
sS'chainsmoker'
p2528
I3539
sS'translated'
p2529
I1994
sS'brunch'
p2530
I3442
sS'igloos'
p2531
I3393
sS'sketch'
p2532
I3012
sS'often'
p2533
I3013
sS'ramsey'
p2534
I2905
sS'absolutely'
p2535
I1362
sS'spring'
p2536
I3014
sS'fathers'
p2537
I3015
sS'1st'
p2538
I3016
sS'some'
p2539
I147
sS'back'
p2540
I82
sS'delegation'
p2541
I3017
sS'sighs'
p2542
I3018
sS'lips'
p2543
I3019
sS'mighty'
p2544
I3020
sS'sight'
p2545
I1360
sS'mirror'
p2546
I3021
sS'curious'
p2547
I908
sS'electric'
p2548
I3022
sS'delivered'
p2549
I1361
sS'scale'
p2550
I3023
sS'measurements'
p2551
I3024
sS"'water"
p2552
I3025
sS'exceeding'
p2553
I3026
sS'per'
p2554
I909
sS'crisis'
p2555
I3027
sS'pen'
p2556
I3028
sS'goldman'
p2557
I2821
sS'pee'
p2558
I1363
sS'anne'
p2559
I3030
sS'dating'
p2560
I3031
sS'pea'
p2561
I2639
sS"son's"
p2562
I684
sS'be'
p2563
I64
sS'cameraman'
p2564
I3033
sS'patient'
p2565
I1125
sS'bb'
p2566
I985
sS'ufo'
p2567
I3036
sS"fuckin'"
p2568
I2122
sS'darth'
p2569
I3279
sS'jumps'
p2570
I531
sS"'sahib"
p2571
I3038
sS'sbread'
p2572
I2128
sS'fleshlight'
p2573
I3040
sS'served'
p2574
I3041
sS'feb'
p2575
I3042
sS'by'
p2576
I103
sS'faith'
p2577
I1364
sS'goods'
p2578
I3043
sS'wrecking'
p2579
I3044
sS'anything'
p2580
I213
sS'cigarette'
p2581
I3045
sS'range'
p2582
I3046
sS'ounce'
p2583
I1365
sS'beans'
p2584
I1366
sS'germany'
p2585
I1806
sS'womens'
p2586
I3048
sS'wanna'
p2587
I806
sS'seeing'
p2588
I910
sS'clinton'
p2589
I3050
sS'grammy'
p2590
I911
sS'terrorists'
p2591
I3051
sS"adele's"
p2592
I2688
sS'aliens'
p2593
I462
sS'within'
p2594
I3053
sS'services'
p2595
I3055
sS'lesson'
p2596
I492
sS'impressed'
p2597
I3057
sS'statistics'
p2598
I913
sS'handiclapped'
p2599
I3058
sS'dispatched'
p2600
I3059
sS'question'
p2601
I622
sS'long'
p2602
I379
sS"we're"
p2603
I914
sS'prostitute'
p2604
I1808
sS'opens'
p2605
I3062
sS'himself'
p2606
I915
sS'an'
p2607
I37
sS'inches'
p2608
I2307
sS'jewish'
p2609
I148
sS'collapsed'
p2610
I2316
sS'sighted'
p2611
I3066
sS'pastor'
p2612
I1370
sS'girlfriends'
p2613
I3067
sS'pounder'
p2614
I3068
sS'boys'
p2615
I1371
sS'properly'
p2616
I3069
sS'library'
p2617
I3070
sS'russian'
p2618
I916
sS'line'
p2619
I917
sS'nutshell'
p2620
I3071
sS"'you"
p2621
I1373
sS'commercialism'
p2622
I3073
sS"hasn't"
p2623
I918
sS'us'
p2624
I254
sS'planet'
p2625
I1375
sS'mobile'
p2626
I2833
sS'un'
p2627
I3074
sS'cautiously'
p2628
I3075
sS'uh'
p2629
I1377
sS'boards'
p2630
I2193
sS'approaches'
p2631
I3295
sS'export'
p2632
I3517
sS'z'
I3077
sS'called'
p2633
I532
sS'yelled'
p2634
I1378
sS'bell'
p2635
I1518
sS'v'
I3078
sS'ordered'
p2636
I1368
sS'convey'
p2637
I3080
sS'raging'
p2638
I3081
sS"side'"
p2639
I1993
sS'brits'
p2640
I3083
sS'influence'
p2641
I3084
sS'starbucks'
p2642
I3085
sS'single'
p2643
I1379
sS'warning'
p2644
I1380
sS'evening'
p2645
I3086
sS'chat'
p2646
I3087
sS'kidney'
p2647
I3088
sS'codes'
p2648
I3089
sS'lemon'
p2649
I3090
sS'bitteys'
p2650
I3091
sS'fixing'
p2651
I3092
sS'nah'
p2652
I1381
sS'buckshot'
p2653
I1382
sS'bubblegum'
p2654
I3093
sS'afford'
p2655
I3094
sS'points'
p2656
I1811
sS'actors'
p2657
I3095
sS'tits'
p2658
I1384
sS'altar'
p2659
I3096
sS'tarp'
p2660
I2474
sS'nice'
p2661
I334
sS'smiles'
p2662
I2481
sS"peter's"
p2663
I2483
sS'mustard'
p2664
I3100
sS'scandals'
p2665
I3101
sS'favourite'
p2666
I1385
sS'scrum'
p2667
I3103
sS'problems'
p2668
I3104
sS'breasts'
p2669
I3105
sS'visits'
p2670
I1386
sS'prepared'
p2671
I3106
sS'william'
p2672
I3107
sS"guy's"
p2673
I1387
sS'oedipus'
p2674
I3108
sS'smiled'
p2675
I920
sS'song'
p2676
I1016
sS'swede'
p2677
I687
sS'desert'
p2678
I533
sS'structure'
p2679
I3109
sS'ago'
p2680
I1388
sS'vaseline'
p2681
I1389
sS'lane'
p2682
I3110
sS'miles'
p2683
I2247
sS'e'
I1530
sS'sore'
p2684
I3204
sS'napping'
p2685
I3112
sS'walked'
p2686
I274
sS'responded'
p2687
I688
sS'cooked'
p2688
I3113
sS'worn'
p2689
I3114
sS'far'
p2690
I1390
sS'fresh'
p2691
I851
sS'having'
p2692
I169
sS'pinion'
p2693
I852
sS'code'
p2694
I921
sS'paw'
p2695
I3116
sS'scratch'
p2696
I3117
sS'nuns'
p2697
I3118
sS'alien'
p2698
I534
sS'baby'
p2699
I1419
sS'windy'
p2700
I3120
sS'proposition'
p2701
I3121
sS'gang'
p2702
I922
sS'go'
p2703
I93
sS'shrugged'
p2704
I3122
sS'seemed'
p2705
I689
sS'communist'
p2706
I3369
sS'lyrics'
p2707
I1818
sS'reposted'
p2708
I3124
sS'concerned'
p2709
I3125
sS'young'
p2710
I235
sS'send'
p2711
I441
sS'shack'
p2712
I3126
sS"you've"
p2713
I2724
sS'millennium'
p2714
I1726
sS'helps'
p2715
I3127
sS'brutally'
p2716
I2774
sS'whisky'
p2717
I1392
sS'fences'
p2718
I3128
sS'friendly'
p2719
I1393
sS'sent'
p2720
I867
sS'rag'
p2721
I2851
sS'random'
p2722
I2449
sS'outside'
p2723
I923
sS"'now"
p2724
I3132
sS'continues'
p2725
I1394
sS'wave'
p2726
I3133
sS'stadium'
p2727
I3552
sS'facebook'
p2728
I658
sS'traced'
p2729
I3274
sS'telling'
p2730
I1395
sS'practicing'
p2731
I3209
sS'drinking'
p2732
I691
sS"'how"
p2733
I3135
sS'continued'
p2734
I1396
sS'pinions'
p2735
I3476
sS'entire'
p2736
I924
sS'partially'
p2737
I3136
sS'magic'
p2738
I3138
sS"necrophiliac's"
p2739
I3139
sS'stiff'
p2740
I3140
sS'transmission'
p2741
I2731
sS'roll'
p2742
I3142
sS'marry'
p2743
I2733
sS'michael'
p2744
I1398
sS'eve'
p2745
I3144
sS'flickered'
p2746
I3145
sS'try'
p2747
I335
sS'trudeau'
p2748
I1300
sS'carl'
p2749
I3146
sS'smaller'
p2750
I3147
sS'carter'
p2751
I2781
sS'crow'
p2752
I925
sS"'ah"
p2753
I3149
sS'scientist'
p2754
I2713
sS'jump'
p2755
I1400
sS'hose'
p2756
I3529
sS'picked'
p2757
I1401
sS'haiku'
p2758
I2035
sS'odd'
p2759
I536
sS'depression'
p2760
I3153
sS'sausage'
p2761
I1402
sS'power'
p2762
I3155
sS'wiggled'
p2763
I3156
sS'chicago'
p2764
I3157
sS'giving'
p2765
I1403
sS'falcons'
p2766
I3158
sS'squeeze'
p2767
I3159
sS"man's"
p2768
I926
sS'paying'
p2769
I3160
sS'waiting'
p2770
I927
sS'twins'
p2771
I1404
sS'psychiatrist'
p2772
I3162
sS'fiora'
p2773
I3163
sS'bird'
p2774
I1406
sS'nazis'
p2775
I970
sS'body'
p2776
I928
sS'chose'
p2777
I2882
sS'exchange'
p2778
I1336
sS'pushing'
p2779
I3166
sS'spacing'
p2780
I3167
sS'punch'
p2781
I2894
sS'youngest'
p2782
I1408
sS'following'
p2783
I2183
sS'northeast'
p2784
I1826
sS'let'
p2785
I255
sS'cab'
p2786
I598
sS'sexy'
p2787
I3171
sS'extreme'
p2788
I3172
sS"buddy's"
p2789
I3173
sS'great'
p2790
I236
sS'arrive'
p2791
I2169
sS"'why"
p2792
I3174
sS'denephew'
p2793
I3175
sS'credits'
p2794
I3176
sS'30'
p2795
I1409
sS'titanic'
p2796
I1410
sS'leaving'
p2797
I930
sS'ment'
p2798
I3177
sS"weren't"
p2799
I1411
sS'popcorn'
p2800
I1412
sS'youtuber'
p2801
I3178
sS'makes'
p2802
I442
sS'honor'
p2803
I443
sS'control'
p2804
I1425
sS'named'
p2805
I537
sS'sat'
p2806
I497
sS'apple'
p2807
I1413
sS'blizzard'
p2808
I3179
sS'nearest'
p2809
I2543
sS'win'
p2810
I538
sS'shoved'
p2811
I3181
sS'dedicated'
p2812
I3182
sS'private'
p2813
I3183
sS'gordon'
p2814
I2266
sS'names'
p2815
I444
sS'motor'
p2816
I3184
sS'duck'
p2817
I380
sS'boasts'
p2818
I3185
sS'cloud'
p2819
I3186
sS'nursing'
p2820
I3187
sS'standing'
p2821
I445
sS'use'
p2822
I256
sS'from'
p2823
I67
sS'figure'
p2824
I1002
sS'remains'
p2825
I3189
sS'mid'
p2826
I3190
sS'mowing'
p2827
I3216
sS'frog'
p2828
I3191
sS'next'
p2829
I149
sS'few'
p2830
I257
sS'nauseates'
p2831
I1416
sS'camera'
p2832
I3192
sS'beaches'
p2833
I3193
sS'vehicle'
p2834
I932
sS'consecutive'
p2835
I3378
sS'cheeks'
p2836
I3194
sS'sort'
p2837
I3195
sS'pencil'
p2838
I3196
sS'babe'
p2839
I3197
sS'snickers'
p2840
I1083
sS'upcoming'
p2841
I3198
sS'porch'
p2842
I3199
sS'started'
p2843
I237
sS'becomes'
p2844
I3200
sS'musician'
p2845
I3201
sS'about'
p2846
I38
sS'infection'
p2847
I3202
sS'fuck'
p2848
I162
sS'integrate'
p2849
I1832
sS'train'
p2850
I1418
sS'prizes'
p2851
I3205
sS'8'
I2853
sS'penis'
p2852
I535
sS'actual'
p2853
I3537
sS'women'
p2854
I127
sS'customer'
p2855
I3207
sS'escaped'
p2856
I1426
sS'account'
p2857
I3208
sS'balls'
p2858
I381
sS'animals'
p2859
I1094
sS'announcing'
p2860
I3210
sS"bird's"
p2861
I1581
sS'this'
p2862
I35
sS'ride'
p2863
I3212
sS'when'
p2864
I45
sS'obvious'
p2865
I3161
sS'island'
p2866
I1422
sS'meet'
p2867
I1423
sS'closing'
p2868
I1424
sS'didnt'
p2869
I3213
sS'fighter'
p2870
I3111
sS'performed'
p2871
I2178
sS'point'
p2872
I863
sS'bent'
p2873
I3214
sS'ushers'
p2874
I931
sS'escapes'
p2875
I1415
sS'process'
p2876
I3217
sS"they've"
p2877
I3218
sS'high'
p2878
I692
sS'nears'
p2879
I2591
sS'something'
p2880
I184
sS'slip'
p2881
I3220
sS'serial'
p2882
I3221
sS'locking'
p2883
I3222
sS'onions'
p2884
I1427
sS'dairy'
p2885
I2595
sS'lamb'
p2886
I1428
sS'sir'
p2887
I3224
sS'united'
p2888
I3225
sS'monoxide'
p2889
I3226
sS'sit'
p2890
I835
sS'skirt'
p2891
I3227
sS'holds'
p2892
I1430
sS'brian'
p2893
I1431
sS'lamp'
p2894
I1432
sS'numerous'
p2895
I3228
sS'pair'
p2896
I2324
sS'instead'
p2897
I693
sS'grimaced'
p2898
I3229
sS'native'
p2899
I3223
sS'intelligent'
p2900
I1433
sS'banned'
p2901
I2858
sS'profile'
p2902
I3231
sS'furiously'
p2903
I3232
sS'petersburg'
p2904
I2088
sS'farm'
p2905
I936
sS'watch'
p2906
I472
sS"'rubbing"
p2907
I3233
sS'collection'
p2908
I3234
sS'bothered'
p2909
I3235
sS'helmet'
p2910
I2994
sS'trees'
p2911
I3237
sS'urges'
p2912
I3238
sS'ties'
p2913
I1453
sS'cabbage'
p2914
I938
sS'realized'
p2915
I446
sS'introduced'
p2916
I3542
sS'famous'
p2917
I3240
sS'light'
p2918
I447
sS'counter'
p2919
I448
sS'element'
p2920
I3241
sS'emanuel'
p2921
I3242
sS'chief'
p2922
I694
sS'courage'
p2923
I2863
sS'realizes'
p2924
I1434
sS'pyramids'
p2925
I3243
sS'necklace'
p2926
I3244
sS'volunteers'
p2927
I3245
sS'furnish'
p2928
I3246
sS'houston'
p2929
I3247
sS'produces'
p2930
I1435
sS'coolly'
p2931
I3248
sS'move'
p2932
I1358
sS'quietly'
p2933
I3250
sS'sperm'
p2934
I3251
sS"won't"
p2935
I539
sS'looks'
p2936
I214
sS'knocks'
p2937
I3252
sS'horny'
p2938
I3253
sS'galaxy'
p2939
I3254
sS"wife's"
p2940
I1436
sS'perfect'
p2941
I695
sS'write'
p2942
I1437
sS'outer'
p2943
I3255
sS'tsk'
p2944
I1438
sS'chosen'
p2945
I3256
sS'lo'
p2946
I3257
sS'exclaims'
p2947
I3219
sS'ships'
p2948
I3258
sS'hail'
p2949
I3259
sS'labor'
p2950
I3260
sS'mental'
p2951
I2735
sS'travelers'
p2952
I1439
sS'redhead'
p2953
I939
sS'covered'
p2954
I3261
sS'2017'
p2955
I3262
sS'millions'
p2956
I3263
sS'dad'
p2957
I136
sS'tickled'
p2958
I3264
sS'crash'
p2959
I3265
sS'unclear'
p2960
I3424
sS'dam'
p2961
I215
sS'spell'
p2962
I696
sS'flew'
p2963
I3266
sS'mention'
p2964
I3267
sS'hands'
p2965
I1440
sS'front'
p2966
I697
sS'cage'
p2967
I3269
sS'day'
p2968
I48
sS'worlds'
p2969
I1765
sS'february'
p2970
I1441
sS"bra's"
p2971
I3271
sS"night's"
p2972
I3272
sS'edit'
p2973
I1442
sS'university'
p2974
I3273
sS'tran'
p2975
I3137
sS'sin'
p2976
I3230
sS'lifetime'
p2977
I2556
sS'editor'
p2978
I2020
sS'truth'
p2979
I1443
sS'crossing'
p2980
I3275
sS'identifies'
p2981
I1444
sS'bills'
p2982
I3276
sS'glasses'
p2983
I1445
sS'studios'
p2984
I3277
sS'doing'
p2985
I238
sS'evaporated'
p2986
I3278
sS'related'
p2987
I3280
sS'society'
p2988
I3281
sS'books'
p2989
I1446
sS'tranny'
p2990
I3282
sS'exceeded'
p2991
I3102
sS'our'
p2992
I94
sS'80'
p2993
I1447
sS'coughs'
p2994
I2868
sS'sexual'
p2995
I940
sS'special'
p2996
I3284
sS'out'
p2997
I32
sS'semen'
p2998
I941
sS'octopus'
p2999
I3285
sS"'"
I60
sS'bag'
p3000
I942
sS"'umm"
p3001
I3286
sS"''sure"
p3002
I3287
sS'technically'
p3003
I2520
sS'cause'
p3004
I943
sS'math'
p3005
I562
sS'wildfire'
p3006
I3288
sS'shut'
p3007
I1448
sS'umbrella'
p3008
I1449
sS'approached'
p3009
I944
sS'eco'
p3010
I3289
sS'frank'
p3011
I3290
sS'alkynes'
p3012
I3291
sS'inferiority'
p3013
I3292
sS'promptly'
p3014
I3293
sS'release'
p3015
I3294
sS'graze'
p3016
I2420
sS'jill'
p3017
I3296
sS'early'
p3018
I2968
sS'steering'
p3019
I3298
sS'shortest'
p3020
I3299
sS'wwwaaaatttaaaar'
p3021
I3300
sS'backwards'
p3022
I3301
sS'organic'
p3023
I1656
sS'fart'
p3024
I3303
sS'phrases'
p3025
I1450
sS'could'
p3026
I128
sS'area'
p3027
I1451
sS'keep'
p3028
I698
sS'conversation'
p3029
I1452
sS'4th'
p3030
I2983
sS'repeats'
p3031
I3304
sS'stimulate'
p3032
I1684
sS'south'
p3033
I946
sS'designed'
p3034
I3306
sS'yells'
p3035
I336
sS'scene'
p3036
I3308
sS'jesus'
p3037
I700
sS'arguing'
p3038
I2787
sS'bitch'
p3039
I275
sS'sacs'
p3040
I3309
sS'1886'
p3041
I3239
sS'drinker'
p3042
I1040
sS'precisely'
p3043
I3310
sS'spelling'
p3044
I3311
sS'braces'
p3045
I3312
sS"doesn't"
p3046
I382
sS'ancient'
p3047
I1454
sS'sadly'
p3048
I3313
sS'monkey'
p3049
I276
sS'unknown'
p3050
I1455
sS'demonstration'
p3051
I3314
sS'assure'
p3052
I3418
sS"how'd"
p3053
I2524
sS'adopted'
p3054
I1456
sS'their'
p3055
I105
sS'attack'
p3056
I948
sS'ankle'
p3057
I1457
sS'travelled'
p3058
I3316
sS'final'
p3059
I3317
sS'cabin'
p3060
I3318
sS'paved'
p3061
I2282
sS'ironic'
p3062
I2429
sS'zookeeper'
p3063
I1421
sS'shiny'
p3064
I3049
sS'nobody'
p3065
I753
sS'biggest'
p3066
I1459
sS'grandpa'
p3067
I1460
sS'manhole'
p3068
I1461
sS'uconn'
p3069
I3321
sS'salami'
p3070
I3322
sS'herself'
p3071
I1462
sS'remember'
p3072
I410
sS'steel'
p3073
I3323
sS'nun'
p3074
I541
sS'colleagues'
p3075
I949
sS"cashier's"
p3076
I3324
sS'bother'
p3077
I1463
sS'reacted'
p3078
I1855
sS'bed'
p3079
I277
sS'bee'
p3080
I950
sS'loves'
p3081
I1464
sS'visited'
p3082
I1465
sS'naturally'
p3083
I3325
sS'bet'
p3084
I1466
sS'bard'
p3085
I3326
sS'subreddits'
p3086
I3327
sS'false'
p3087
I3328
sS'wakes'
p3088
I3329
sS'violets'
p3089
I542
sS'julian'
p3090
I3331
sS'deodorant'
p3091
I3332
sS'gently'
p3092
I1467
sS'comfortable'
p3093
I3333
sS'tonight'
p3094
I543
sS'goldberg'
p3095
I3334
sS'receptionist'
p3096
I1468
sS'have'
p3097
I36
sS'keller'
p3098
I3335
sS'need'
p3099
I185
sS'apparently'
p3100
I384
sS'clearly'
p3101
I702
sS'necessities'
p3102
I3336
sS'bastard'
p3103
I1469
sS'afraid'
p3104
I951
sS'pupils'
p3105
I3337
sS'bakery'
p3106
I952
sS'mix'
p3107
I3338
sS'declined'
p3108
I3339
sS'which'
p3109
I186
sS'bosnian'
p3110
I1470
sS'jail'
p3111
I1471
sS'asshole'
p3112
I1472
sS'subject'
p3113
I3340
sS'divers'
p3114
I3341
sS'venereal'
p3115
I3342
sS'unless'
p3116
I1473
sS"where'd"
p3117
I1986
sS'petrol'
p3118
I3344
sS'who'
p3119
I100
sS"where's"
p3120
I1474
sS'furious'
p3121
I3345
sS'eight'
p3122
I953
sS"joe's"
p3123
I544
sS'why'
p3124
I49
sS"husband's"
p3125
I954
sS'cleats'
p3126
I3346
sS'liked'
p3127
I2908
sS'upset'
p3128
I703
sS'disease'
p3129
I3348
sS'face'
p3130
I259
sS'looked'
p3131
I351
sS'graphs'
p3132
I3350
sS"you'll"
p3133
I1475
sS'near'
p3134
I2848
sS'pictures'
p3135
I3352
sS'businessman'
p3136
I1476
sS'fact'
p3137
I3353
sS'affair'
p3138
I3354
sS'survived'
p3139
I3355
sS'text'
p3140
I3356
sS'agreed'
p3141
I956
sS'anyway'
p3142
I1477
sS'bring'
p3143
I957
sS'biker'
p3144
I3357
sS'planning'
p3145
I3358
sS'manchester'
p3146
I3359
sS'parked'
p3147
I1478
sS'bedroom'
p3148
I958
sS'fear'
p3149
I704
sS'darkest'
p3150
I3054
sS'debate'
p3151
I2121
sS'shield'
p3152
I2200
sS'exercise'
p3153
I3164
sS'communism'
p3154
I1480
sS'grabbed'
p3155
I3362
sS'hops'
p3156
I3363
sS'downstairs'
p3157
I3364
sS'scorpion'
p3158
I3365
sS'jar'
p3159
I1481
sS'incident'
p3160
I3415
sS'should'
p3161
I306
sS'score'
p3162
I3366
sS'candidates'
p3163
I2156
sS"'don't"
p3164
I3382
sS'fuel'
p3165
I2163
sS'marriage'
p3166
I2803
sS'piano'
p3167
I2164
sS'handsome'
p3168
I1234
sS'local'
p3169
I450
sS'hope'
p3170
I545
sS'melissa'
p3171
I3371
sS'meant'
p3172
I3203
sS'cube'
p3173
I2176
sS'handle'
p3174
I3374
sS'means'
p3175
I1417
sS'beat'
p3176
I3375
sS'massacre'
p3177
I3376
sS'coworker'
p3178
I3377
sS'lucky'
p3179
I1483
sS'bear'
p3180
I546
sS'joint'
p3181
I959
sS'bean'
p3182
I705
sS'ones'
p3183
I216
sS'words'
p3184
I706
sS'distraught'
p3185
I3134
sS'areas'
p3186
I3379
sS"'love'"
p3187
I3380
sS'gray'
p3188
I1484
sS'organ'
p3189
I1485
sS'course'
p3190
I616
sS'shy'
p3191
I2407
sS'married'
p3192
I707
sS'fixes'
p3193
I1486
sS'calling'
p3194
I1487
sS'stuff'
p3195
I3383
sS'she'
p3196
I24
sS'dangerous'
p3197
I1549
sS'mercedes'
p3198
I2257
sS'including'
p3199
I3385
sS'grab'
p3200
I1488
sS'gravitational'
p3201
I3386
sS"monkees'"
p3202
I3387
sS'prayers'
p3203
I3388
sS'humans'
p3204
I1489
sS'reddit'
p3205
I708
sS'computer'
p3206
I1490
sS'driveway'
p3207
I3389
sS'skateboarding'
p3208
I3390
sS'flashbacks'
p3209
I2734
sS'packed'
p3210
I3391
sS'closer'
p3211
I1491
sS'tripping'
p3212
I1720
sS'asks'
p3213
I62
sS'destiny'
p3214
I3394
sS'clearing'
p3215
I3395
sS'nature'
p3216
I2547
sS'thong'
p3217
I2969
sS'smallest'
p3218
I3398
sS'mexicans'
p3219
I961
sS'closed'
p3220
I3399
sS'horrible'
p3221
I3400
sS'understood'
p3222
I3268
sS'muslim'
p3223
I3402
sS'neither'
p3224
I1492
sS'bunch'
p3225
I1493
sS'frustrated'
p3226
I3403
sS'pants'
p3227
I827
sS'shiite'
p3228
I3404
sS'weighing'
p3229
I3406
sS'raped'
p3230
I3098
sS'joy'
p3231
I3408
sS'monarchy'
p3232
I3409
sS'hummer'
p3233
I3410
sS'job'
p3234
I709
sS'joe'
p3235
I200
sS'floss'
p3236
I3524
sS'group'
p3237
I3411
sS'precious'
p3238
I2396
sS'jon'
p3239
I3412
sS'association'
p3240
I3413
sS'hits'
p3241
I1494
sS'figured'
p3242
I962
sS'instant'
p3243
I3414
sS'joke'
p3244
I217
sS'taking'
p3245
I1495
sS'equal'
p3246
I2426
sS'drug'
p3247
I1206
sS'shipment'
p3248
I3417
sS'april'
p3249
I2084
sS'admit'
p3250
I3419
sS'busted'
p3251
I1496
sS'figures'
p3252
I3420
sS'trumps'
p3253
I1497
sS'section'
p3254
I3421
sS'swallow'
p3255
I1212
sS'journey'
p3256
I3330
sS'torn'
p3257
I2210
sS'co'
p3258
I3425
sS'toilet'
p3259
I1498
sS'wall'
p3260
I386
sS'teasing'
p3261
I3426
sS'walk'
p3262
I451
sS'denise'
p3263
I3427
sS'laugh'
p3264
I1499
sS'cousin'
p3265
I1867
sS'whispering'
p3266
I1500
sS'table'
p3267
I388
sS'quit'
p3268
I1501
sS"whatever's"
p3269
I3428
sS'espn2'
p3270
I3429
sS"it's"
p3271
I58
sS'hunters'
p3272
I3430
sS'udder'
p3273
I3540
sS'dazzling'
p3274
I3431
sS'responds'
p3275
I452
sS'pizzing'
p3276
I2552
sS'drank'
p3277
I3433
sS'roomate'
p3278
I2526
sS'looting'
p3279
I2290
sS'feather'
p3280
I3435
sS'cena'
p3281
I3436
sS'juggler'
p3282
I2551
sS'mike'
p3283
I1502
sS'secone'
p3284
I1777
sS'deer'
p3285
I3439
sS'neighbour'
p3286
I3440
sS'finished'
p3287
I1503
sS'abortions'
p3288
I3441
sS'bull'
p3289
I963
sS'smoking'
p3290
I710
sS'atlanta'
p3291
I2943
sS'ravens'
p3292
I1248
sS'despite'
p3293
I3249
sS'present'
p3294
I3443
sS'volunteer'
p3295
I3444
sS'holiday'
p3296
I3445
sS'welcoming'
p3297
I3446
sS'anomalies'
p3298
I3447
sS'vanilla'
p3299
I3448
sS'harder'
p3300
I3449
sS'will'
p3301
I116
sS'country'
p3302
I1505
sS'rigged'
p3303
I3450
sS'instantly'
p3304
I965
sS'stuffing'
p3305
I3451
sS'examines'
p3306
I3452
sS'almost'
p3307
I711
sS'insanely'
p3308
I3453
sS'pewp'
p3309
I3454
sS'site'
p3310
I3455
sS'surface'
p3311
I1506
sS'sustenance'
p3312
I3456
sS'rips'
p3313
I2322
sS'against'
p3314
I3458
sS'adultery'
p3315
I966
sS'watched'
p3316
I1329
sS'partner'
p3317
I1507
sS'sits'
p3318
I1508
sS"'show"
p3319
I2903
sS'began'
p3320
I1510
sS'administration'
p3321
I3460
sS'cross'
p3322
I389
sS'member'
p3323
I3461
sS'strange'
p3324
I876
sS'slammed'
p3325
I548
sS'units'
p3326
I3462
sS'party'
p3327
I3463
sS'gets'
p3328
I117
sS'suede'
p3329
I3072
sS'kidnapping'
p3330
I1045
sS'absorb'
p3331
I3465
sS'drink'
p3332
I260
sS'econd'
p3333
I2754
sS'diploma'
p3334
I3467
sS'beast'
p3335
I1513
sS'student'
p3336
I947
sS'suzi'
p3337
I3469
sS'sisters'
p3338
I2719
sS'whale'
p3339
I1514
sS'orgy'
p3340
I3471
sS'pull'
p3341
I1482
sS"'but"
p3342
I3472
sS'off'
p3343
I106
sS'englishman'
p3344
I435
sS'labia'
p3345
I2412
sS'lunch'
p3346
I1339
sS'i'
I8
sS'shotgun'
p3347
I712
sS'modeled'
p3348
I3477
sS'well'
p3349
I85
sS'banging'
p3350
I1515
sS"'hello"
p3351
I1516
sS'thought'
p3352
I150
sS'english'
p3353
I968
sS'sensing'
p3354
I2834
sS'realised'
p3355
I3479
sS'advertiser'
p3356
I3480
sS'taller'
p3357
I3481
sS'newest'
p3358
I3482
sS'inebriated'
p3359
I3483
sS'cried'
p3360
I969
sS'less'
p3361
I730
sS'42'
p3362
I2337
sS'downvotes'
p3363
I3486
sS'das'
p3364
I3487
sS'flies'
p3365
I1517
sS'cries'
p3366
I971
sS'batteries'
p3367
I3488
sS'smash'
p3368
I3489
sS'seats'
p3369
I3490
sS'rest'
p3370
I3491
sS"a4'd"
p3371
I3035
sS'happiness'
p3372
I3492
sS'web'
p3373
I3493
sS'ads'
p3374
I3494
sS'roses'
p3375
I366
sS'drunk'
p3376
I376
sS'smith'
p3377
I1519
sS'handy'
p3378
I2627
sS'book'
p3379
I1520
sS'adoption'
p3380
I3496
sS'attractive'
p3381
I1521
sS'combing'
p3382
I2928
sS'gust'
p3383
I3498
sS'smart'
p3384
I3499
sS'match'
p3385
I2008
sS'raven'
p3386
I1522
sS'psa'
p3387
I2637
sS"'darling'"
p3388
I2372
sS'government'
p3389
I713
sS"who's"
p3390
I973
sS'crossfitter'
p3391
I2961
sS"'dust"
p3392
I3503
sS'historic'
p3393
I3504
sS'five'
p3394
I714
sS'know'
p3395
I59
sS'desk'
p3396
I1523
sS'press'
p3397
I1524
sS'immediately'
p3398
I1525
sS'crayons'
p3399
I3505
sS'tick'
p3400
I3506
sS'loss'
p3401
I1526
sS'incredibly'
p3402
I3576
sS'showing'
p3403
I3507
sS'like'
p3404
I66
sS'lost'
p3405
I338
sS'chairs'
p3406
I3508
sS'sofa'
p3407
I1527
sS'ring'
p3408
I974
sS'candy'
p3409
I3509
sS'4chan'
p3410
I3510
sS"luke's"
p3411
I3511
sS'lose'
p3412
I1528
sS'chick'
p3413
I2916
sS'works'
p3414
I1529
sS'italian'
p3415
I549
sS'gaining'
p3416
I3513
sS'warmed'
p3417
I3514
sS'because'
p3418
I77
sS'scared'
p3419
I550
sS'searching'
p3420
I3515
sS'alive'
p3421
I975
sS'hair'
p3422
I390
sS'daylight'
p3423
I3516
sS'holler'
p3424
I919
sS'shes'
p3425
I3518
sS'oroville'
p3426
I976
sS'home'
p3427
I187
sS'empire'
p3428
I3519
sS'peter'
p3429
I1531
sS'arsenic'
p3430
I3520
sS'flummoxed'
p3431
I3521
sS"heaven's"
p3432
I3522
sS'avoid'
p3433
I977
sS'14th'
p3434
I1532
sS'shelter'
p3435
I3523
sS'marched'
p3436
I1931
sS'does'
p3437
I170
sS'ripped'
p3438
I3528
sS'hysterically'
p3439
I1883
sS'?'
I7
sS'castrate'
p3440
I3525
sS'deciding'
p3441
I3526
sS'bingo'
p3442
I3527
sS'pepper'
p3443
I3150
sS"y'know"
p3444
I3151
sS'mouth'
p3445
I3047
sS'evacuation'
p3446
I3530
sS'bowling'
p3447
I3531
sS'hitchhiking'
p3448
I3532
sS'60mph'
p3449
I3533
sS'likewise'
p3450
I3082
sS'pressure'
p3451
I1536
sS'pasta'
p3452
I3534
sS'hush'
p3453
I3535
sS'slug'
p3454
I3536
sS'panel'
p3455
I978
sS'sister'
p3456
I979
sS'commited'
p3457
I1420
sS'justin'
p3458
I654
sS'getting'
p3459
I278
sS'mommy'
p3460
I1367
sS'scott'
p3461
I2570
sS'carries'
p3462
I1537
sS'swear'
p3463
I3315
sS'whistles'
p3464
I1566
sS'concession'
p3465
I3541
sS'entered'
p3466
I2452
sS'irishman'
p3467
I279
sS'software'
p3468
I980
sS'own'
p3469
I453
sS'100th'
p3470
I2673
sS'pussy'
p3471
I551
sS'screamed'
p3472
I454
sS'weather'
p3473
I3543
sS'tiny'
p3474
I1538
sS'female'
p3475
I1539
sS'roads'
p3476
I1540
sS'quickly'
p3477
I455
sS'rowboat'
p3478
I1541
sS'brownies'
p3479
I1542
sS'housing'
p3480
I3544
sS'daniels'
p3481
I3545
sS'disapproval'
p3482
I3381
sS'noticed'
p3483
I552
sS'rushes'
p3484
I3547
sS'bees'
p3485
I1353
sS'frustration'
p3486
I1543
sS'notices'
p3487
I716
sS'flynn'
p3488
I3549
sS'ensured'
p3489
I2922
sS'beard'
p3490
I3550
sS'buy'
p3491
I553
sS'north'
p3492
I3551
sS'ireland'
p3493
I3063
sS"i've"
p3494
I151
sS'bus'
p3495
I280
sS'coke'
p3496
I1545
sS'agrees'
p3497
I3553
sS'but'
p3498
I29
sS'hated'
p3499
I3554
sS'hi'
p3500
I1546
sS'marge'
p3501
I3555
sS'winch'
p3502
I3556
sS'ear'
p3503
I1547
sS'eat'
p3504
I239
sS'he'
p3505
I10
sS'count'
p3506
I717
sS'made'
p3507
I339
sS'wise'
p3508
I981
sS'whether'
p3509
I1548
sS'wish'
p3510
I385
sS'cells'
p3511
I1550
sS'j'
I3557
sS'corpses'
p3512
I3558
sS'below'
p3513
I1551
sS'convince'
p3514
I3559
sS'woke'
p3515
I899
sS'invest'
p3516
I2575
sS'garbanzo'
p3517
I1552
sS'picks'
p3518
I2974
sS'problem'
p3519
I1553
sS'piece'
p3520
I3561
sS'minutes'
p3521
I261
sS'odds'
p3522
I3562
sS'irish'
p3523
I3563
sS'rabbits'
p3524
I3564
sS'obese'
p3525
I3565
sS'uhm'
p3526
I3566
sS'measure'
p3527
I3283
sS'kisses'
p3528
I1554
sS'pie'
p3529
I555
sS'pig'
p3530
I1020
sS'twist'
p3531
I3569
sS'beats'
p3532
I3570
sS'crystals'
p3533
I3571
sS'kissed'
p3534
I1555
sS'happen'
p3535
I784
sS'balcony'
p3536
I1556
sS'latina'
p3537
I3573
sS'incredible'
p3538
I3574
sS'boos'
p3539
I3575
sS'boot'
p3540
I1557
sS'other'
p3541
I95
sS'wing'
p3542
I2327
sS'kinds'
p3543
I982
sS'potter'
p3544
I3577
sS'secretly'
p3545
I3578
sS'class'
p3546
I556
sS'become'
p3547
I3512
sS'geandfather'
p3548
I3579
sS'stay'
p3549
I983
sS'squeak'
p3550
I3580
sS'basement'
p3551
I3581
sS'friends'
p3552
I557
sS'dolphins'
p3553
I3582
sS'borderline'
p3554
I3583
sS'samsung'
p3555
I984
sS'atheist'
p3556
I1558
sS'portion'
p3557
I3584
sS'compete'
p3558
I3585
sS'mitoastis'
p3559
I3586
sS'greeks'
p3560
I3587
sS'awake'
p3561
I3588
sS'yell'
p3562
I1559
sS'simpson'
p3563
I3589
sS'8th'
p3564
I3590
ssS'char_level'
p3565
I00
sS'word_counts'
p3566
(dp3567
g9
I3
sg1316
I2
sg10
I1
sg2231
I1
sg12
I4
sg13
I4
sg14
I1
sg15
I1
sg16
I2
sg17
I1
sg18
I10
sg19
I1
sg3464
I1
sg21
I1
sg878
I1
sg23
I3
sg24
I2
sg25
I1
sg26
I1
sg1650
I4
sg2417
I3
sg1846
I1
sg295
I1
sg28
I1
sg29
I5
sg30
I1
sg31
I4
sg32
I18
sg33
I1
sg34
I2
sg35
I1
sg377
I1
sg37
I2
sg38
I1
sg39
I1
sg210
I1
sg2861
I1
sg41
I1
sg42
I12
sg43
I2
sg44
I1
sg46
I1
sg47
I1
sg48
I12
sg49
I1
sg50
I1
sg51
I1
sg52
I5
sg53
I1
sg55
I1
sg56
I1
sg57
I1
sg3005
I4
sg59
I1
sg60
I1
sg61
I2
sg2371
I2
sg62
I1
sg63
I2
sg64
I1
sg65
I2
sg66
I4
sg67
I1
sg68
I1
sg1803
I1
sg70
I14
sg71
I5
sS'n'
I1
sg72
I15
sg598
I1
sg74
I1
sg75
I4
sg76
I1
sg77
I1
sg78
I1
sg79
I3
sg80
I1
sg81
I1
sg82
I1
sg83
I2
sg84
I7
sg476
I2
sg20
I1
sg86
I12
sg87
I1
sg88
I28
sg89
I1
sg90
I1
sg2428
I1
sg22
I2
sg92
I1
sg93
I19
sg94
I18
sg95
I1
sg96
I3
sg1811
I1
sg97
I1
sg98
I1
sg99
I5
sg100
I3
sg429
I1
sg102
I3
sg103
I5
sg828
I2
sg104
I1
sg105
I1
sg106
I1
sg2370
I2
sg107
I1
sg1217
I1
sg109
I1
sg110
I1
sg111
I1
sg112
I1
sg113
I7
sg114
I3
sg115
I58
sg116
I1
sg117
I2
sg118
I1
sg2824
I2
sg119
I1
sg120
I1
sg121
I1
sg705
I2
sg123
I1
sg124
I1
sg125
I1
sg126
I1
sg127
I28
sg128
I1
sg129
I1
sg130
I2
sg131
I1
sg132
I20
sg2283
I1
sg134
I1
sg1289
I1
sg135
I1
sg136
I2
sg137
I7
sg138
I1
sg139
I1
sg2069
I1
sg140
I1
sg141
I1
sg142
I2
sg143
I1
sg144
I2
sg145
I1
sg146
I1
sg147
I2
sg868
I2
sg150
I1
sg151
I2
sg152
I2
sg153
I1
sg154
I1
sg3023
I1
sg156
I2
sg157
I3
sg158
I1
sg159
I1
sg903
I1
sg161
I7
sg162
I102
sg917
I14
sg164
I10
sg614
I5
sg166
I12
sg167
I3
sg168
I1
sg169
I1
sg170
I1
sg1227
I1
sg172
I1
sg173
I1
sg174
I157
sg175
I2
sg176
I1
sg178
I19
sg179
I1
sg180
I1
sg181
I10
sg182
I2
sg183
I19
sg1355
I2
sg1079
I1
sg185
I1
sg186
I1
sg187
I9
sg1806
I1
sg1230
I8
sg189
I1
sg2676
I2
sg191
I2
sg621
I2
sg192
I2
sg193
I67
sg194
I4
sg195
I1
sg196
I1
sg2474
I1
sg197
I7
sg198
I4
sg199
I1
sg3530
I2
sg200
I1
sg201
I33
sg202
I3
sg1434
I1
sg204
I3
sg3361
I3
sg205
I1
sg206
I8
sg207
I3
sg208
I1
sg209
I1
sg40
I2
sg211
I1
sg212
I2
sg213
I4
sg214
I7
sg2593
I5
sg3032
I1
sg216
I1
sg217
I2
sg218
I1
sg219
I3
sg220
I1
sg221
I10
sg624
I15
sg223
I3
sg224
I2
sg225
I1
sg226
I1
sg227
I3
sg228
I1
sg229
I25
sg1836
I1
sg230
I1
sg231
I1
sg232
I3
sg233
I1
sg234
I1
sg235
I20
sg236
I1
sg238
I1
sg239
I3
sS','
I785
sg240
I2
sg241
I8
sg1960
I2
sg242
I1
sg243
I49
sg244
I27
sg245
I1
sg246
I2
sg247
I1
sg249
I6
sg250
I1
sg251
I4
sg252
I1
sg254
I91
sg255
I1
sg256
I1
sg257
I2
sg258
I1
sg259
I1
sg260
I3
sg261
I3
sg262
I1
sg264
I2
sg265
I4
sg266
I1
sg267
I2
sg268
I22
sg269
I1
sg270
I6
sg271
I9
sg636
I1
sg273
I1
sg274
I1
sg275
I1
sg276
I1
sg277
I1
sg841
I2
sg279
I1
sg280
I2
sg281
I3
sg282
I1
sg283
I1
sg284
I2
sg285
I5
sg286
I1
sg3212
I1
sg287
I4
sg288
I11
sg289
I1
sg290
I1
sg292
I1
sg293
I1
sg294
I1
sg2714
I1
sg1256
I1
sg1186
I1
sg1257
I2
sg299
I1
sg2117
I1
sg300
I1
sg301
I17
sg1880
I1
sg303
I1
sg304
I1
sg305
I3
sg306
I1
sg307
I1
sg308
I5
sg309
I1
sg310
I1
sg311
I15
sg312
I1
sg313
I1
sg314
I1
sg315
I1
sg316
I1
sg317
I1
sg318
I1
sg319
I1
sg320
I4
sg321
I4
sS'7'
I6
sg322
I1
sg323
I1
sg324
I1
sg2285
I1
sg2276
I2
sg425
I1
sg327
I1
sg328
I1
sg329
I1
sg330
I4
sg331
I1
sg332
I1
sg333
I1
sg334
I3
sg335
I2
sg336
I1
sg337
I1
sg338
I1
sg339
I8
sg340
I6
sg341
I1
sg1264
I5
sg344
I1
sg1857
I3
sg346
I5
sg2493
I2
sg347
I9
sg348
I2
sg349
I1
sg350
I4
sg351
I3
sg352
I1
sg353
I20
sg2969
I1
sg354
I1
sg355
I1
sg356
I8
sg357
I5
sg358
I3
sg359
I1
sg360
I4
sg361
I2
sg362
I11
sg363
I1
sg364
I1
sg3042
I2
sg365
I1
sg366
I1
sg367
I2
sg368
I6
sg369
I1
sg370
I1
sg371
I1
sg372
I10
sg373
I1
sg374
I2
sg375
I2
sg376
I6
sg3284
I1
sg378
I1
sg2355
I3
sg380
I1
sg381
I1
sg382
I7
sg384
I1
sg385
I5
sg2472
I3
sg387
I1
sg388
I3
sg389
I3
sg390
I1
sg391
I10
sg393
I1
sg394
I9
sg395
I1
sg396
I1
sg397
I11
sg398
I1
sg399
I3
sg400
I3
sg401
I1
sg402
I1
sg403
I3
sg404
I3
sg405
I1
sg1109
I1
sg406
I1
sg2476
I1
sg408
I4
sg409
I1
sg410
I1
sg411
I1
sg412
I2
sg413
I1
sg414
I1
sg415
I4
sg3065
I3
sg418
I1
sg419
I1
sg420
I1
sg421
I1
sg3330
I2
sg422
I1
sg423
I1
sg424
I1
sg2585
I1
sg426
I2
sg427
I1
sg428
I2
sg2604
I1
sg430
I1
sg431
I6
sg432
I2
sS'm'
I1
sg433
I7
sg2656
I1
sg435
I1
sg2202
I1
sg437
I1
sg818
I3
sg439
I19
sg440
I1
sg441
I5
sg442
I1
sg443
I1
sg2707
I1
sg445
I1
sg1878
I2
sg447
I1
sg448
I1
sg449
I1
sg450
I1
sg451
I5
sg452
I1
sg453
I1
sg2784
I1
sg455
I2
sg870
I1
sg2364
I1
sg457
I1
sg2089
I3
sg458
I1
sg459
I7
sg1058
I1
sg2849
I1
sg1283
I1
sg464
I1
sg465
I2
sg466
I1
sg467
I102
sg468
I1
sg1285
I5
sg470
I6
sg2906
I5
sg472
I1
sg473
I3
sg474
I3
sg475
I1
sg85
I18
sg477
I1
sg478
I3
sg479
I1
sg480
I1
sg481
I2
sg482
I1
sg483
I4
sg484
I16
sg485
I1
sg486
I1
sg1741
I2
sg488
I1
sg489
I3
sg490
I10
sg491
I1
sg492
I1
sg493
I1
sg494
I1
sg495
I5
sg2518
I1
sg497
I1
sg498
I1
sg499
I4
sg500
I3
sg501
I1
sg502
I1
sg503
I3
sg3078
I1
sg504
I2
sg505
I1
sg506
I9
sg507
I1
sg508
I1
sg509
I9
sg91
I4
sg511
I1
sg512
I5
sg513
I84
sg514
I1
sg515
I3
sg516
I16
sg517
I2
sg518
I8
sg519
I4
sg520
I1
sg521
I2
sg522
I1
sg523
I3
sg524
I1
sg525
I1
sg526
I37
sg527
I12
sg528
I1
sg529
I1
sg530
I2
sg531
I4
sg532
I2
sg533
I2
sg3265
I1
sg535
I2
sg536
I2
sg537
I2
sg538
I1
sg539
I2
sg630
I1
sg541
I1
sg542
I2
sg543
I1
sg2496
I1
sg545
I2
sg1297
I1
sg1780
I5
sg547
I1
sg548
I1
sg549
I40
sg550
I1
sg551
I1
sg552
I2
sg553
I1
sg554
I1
sg1232
I1
sg555
I1
sg556
I1
sg557
I2
sg558
I4
sg559
I2
sg3439
I1
sg561
I1
sg562
I17
sg563
I2
sg564
I3
sg565
I1
sg567
I13
sg568
I28
sS'.'
I1088
sg569
I1
sg570
I1
sg571
I14
sg572
I2
sg573
I2
sg574
I1
sg575
I1
sg576
I2
sg577
I1
sg578
I1
sg579
I1
sg580
I10
sg1304
I2
sg581
I2
sg582
I1
sg583
I1
sg584
I2
sg585
I1
sg586
I3
sg587
I2
sg588
I3
sg589
I1
sg590
I1
sg591
I2
sg592
I33
sg593
I4
sg594
I1
sg595
I1
sg596
I1
sg597
I2
sg73
I1
sg599
I2
sg600
I7
sg601
I2
sg602
I2
sg603
I1
sg1310
I2
sg2840
I2
sg605
I1
sg607
I1
sg608
I1
sg609
I1
sg610
I1
sg611
I1
sg612
I176
sg613
I196
sg165
I1
sg615
I1
sg616
I189
sg617
I1
sg618
I1
sg620
I1
sg1313
I1
sg622
I57
sg1634
I1
sg966
I1
sg625
I1
sg626
I1
sg627
I1
sg628
I1
sg629
I3
sg631
I3
sg773
I1
sg632
I1
sg633
I1
sg634
I3
sg635
I4
sg2135
I1
sg272
I1
sg637
I1
sg638
I1
sg2429
I1
sg639
I1
sg640
I1
sg641
I2
sg642
I3
sg643
I15
sg3436
I1
sg1787
I1
sg645
I2
sg646
I3
sg647
I1
sg648
I5
sg649
I1
sg650
I4
sg651
I1
sg652
I1
sg653
I1
sg654
I1
sg655
I1
sg656
I1
sg657
I1
sg658
I11
sg659
I1
sg660
I998
sg661
I1
sg662
I20
sg663
I1
sg664
I2
sg456
I72
sg666
I2
sg667
I1
sg668
I1
sg669
I1
sg670
I1
sg671
I1
sg672
I1
sg673
I4
sg674
I2
sg675
I8
sg676
I8
sg677
I1
sg510
I1
sg678
I1
sg679
I3
sg680
I2
sg681
I32
sg682
I3
sg683
I1
sg684
I1
sg685
I1
sg686
I2
sg687
I1
sg688
I6
sg689
I2
sg690
I4
sg1535
I1
sg691
I1
sg692
I1
sg1921
I2
sg694
I5
sg1329
I1
sg696
I1
sg697
I3
sg698
I1
sg699
I4
sg700
I2
sg701
I1
sg703
I1
sg702
I1
sg1279
I1
sg704
I3
sg693
I1
sg706
I1
sg707
I1
sg708
I1
sg709
I1
sg710
I6
sg711
I1
sg712
I1
sg713
I1
sg714
I1
sg715
I1
sg716
I1
sg717
I3
sg718
I13
sg719
I20
sg720
I17
sg721
I3
sg722
I24
sg723
I1
sg2859
I2
sg724
I1
sg725
I4
sg726
I4
sg727
I4
sg728
I14
sg729
I1
sg730
I5
sg1337
I1
sg732
I1
sg733
I1
sg734
I135
sg735
I1
sg736
I2
sg3117
I1
sg737
I4
sg738
I2
sg739
I3
sg740
I4
sg741
I1
sg742
I1
sg743
I2
sg744
I1
sg745
I5
sg746
I4
sg747
I1
sg748
I1
sg749
I1
sg2639
I1
sg2529
I1
sg751
I2
sg752
I1
sg753
I1
sg754
I3
sg1017
I4
sg756
I1
sg757
I1
sg758
I1
sg759
I1
sg760
I2
sg761
I1
sg762
I1
sg763
I6
sg1064
I8
sS'o'
I1
sg765
I1
sg2300
I1
sg766
I6
sg767
I3
sg769
I1
sg770
I1
sg3385
I1
sg771
I2
sg772
I3
sg911
I1
sg774
I1
sg775
I15
sg776
I26
sg1347
I1
sg778
I1
sg779
I2
sg780
I1
sg781
I1
sg782
I1
sg783
I1
sg784
I3
sg2362
I1
sg785
I1
sg786
I1
sg787
I5
sg788
I2
sg2978
I1
sg790
I19
sg791
I1
sg792
I2
sg793
I156
sg794
I8
sg795
I9
sg796
I1
sg797
I2
sg798
I2
sg799
I3
sg800
I1
sg801
I1
sg802
I1
sg803
I1
sg804
I21
sg805
I1
sg806
I1
sg807
I1
sg1380
I4
sg809
I1
sg971
I1
sg811
I1
sg812
I1
sg3535
I3
sg813
I2
sg814
I3
sg815
I6
sg816
I1
sg817
I2
sg2758
I1
sg819
I1
sg820
I1
sg821
I1
sg822
I1
sg823
I1
sg824
I1
sg825
I73
sg827
I1
sg1505
I1
sg1508
I1
sg830
I1
sg831
I1
sg832
I1
sg833
I1
sg1549
I7
sg835
I6
sg836
I1
sg3131
I7
sg1569
I1
sg1571
I52
sg840
I1
sg2864
I69
sg842
I1
sg843
I1
sg844
I1
sg845
I2
sg846
I1
sg847
I3
sg848
I2
sg849
I1
sg850
I1
sg851
I1
sg852
I1
sg2786
I4
sg854
I1
sg1639
I1
sg856
I2
sg857
I1
sg858
I2
sg859
I4
sg1251
I1
sg1566
I1
sg860
I1
sg861
I1
sg862
I1
sg863
I1
sg864
I6
sg865
I1
sg866
I1
sg1721
I2
sg148
I6
sg869
I1
sg871
I1
sg1950
I1
sg873
I7
sg874
I1
sg1775
I35
sg877
I3
sg880
I1
sg881
I1
sg882
I1
sg883
I1
sg884
I1
sg885
I1
sg886
I1
sg887
I3
sg888
I4
sg889
I2
sg890
I2
sg891
I3
sg892
I4
sg893
I4
sg894
I2
sg895
I1
sg896
I1
sg897
I3
sg3249
I1
sg898
I20
sg899
I1
sS'0'
I1
sg901
I12
sg902
I1
sg2904
I1
sg904
I1
sg905
I1
sg906
I7
sg907
I3
sg1957
I4
sg909
I1
sg912
I1
sg913
I1
sg914
I3
sg916
I1
sg1168
I1
sg918
I4
sg919
I2
sg920
I2
sg922
I2
sg923
I1
sg924
I1
sg925
I2
sg926
I73
sg2082
I6
sg928
I1
sg929
I1
sg2095
I3
sg931
I2
sg932
I1
sg933
I2
sS'p'
I3
sg934
I2
sg935
I2
sg936
I1
sg937
I50
sg938
I1
sg939
I3
sg940
I2
sg941
I1
sg942
I1
sg943
I1
sg944
I1
sg945
I82
sg946
I1
sg947
I1
sg948
I1
sg2177
I1
sg951
I3
sg952
I1
sg953
I1
sg2565
I2
sg955
I1
sg875
I1
sg957
I1
sg958
I4
sg959
I1
sg960
I1
sg961
I1
sg962
I4
sg963
I1
sg964
I1
sg967
I2
sg3151
I1
sg2568
I1
sg970
I1
sg2278
I1
sg972
I22
sg974
I1
sg222
I2
sg975
I5
sg976
I2
sg977
I1
sg978
I3
sg979
I1
sg980
I14
sg2572
I1
sg981
I13
sg982
I1
sg983
I2
sg984
I1
sg985
I21
sg986
I3
sg987
I5
sg988
I10
sg989
I16
sg990
I1
sg991
I3
sg777
I1
sg992
I1
sg993
I1
sg994
I1
sg995
I1
sg996
I1
sg997
I1
sg998
I2
sg1373
I1
sg999
I2
sg1000
I2
sg1001
I2
sg1002
I1
sg1003
I1
sg1004
I1
sg1005
I15
sg1006
I1
sg1234
I1
sg1008
I2
sg1009
I1
sg203
I3
sg1010
I1
sg1011
I2
sg1012
I1
sg1013
I1
sg1014
I5
sg1015
I3
sg1016
I1
sg755
I2
sg1018
I5
sg1019
I1
sg1384
I2
sg1930
I1
sg1022
I4
sg1023
I1
sg1024
I1
sg1025
I2
sg1026
I2
sg1027
I1
sg1028
I1
sg3163
I1
sg1030
I2
sg1031
I10
sg1032
I1
sg1033
I1
sg1034
I1
sg1035
I1
sg1036
I1
sg1037
I1
sg1038
I8
sg1039
I6
sg3165
I1
sg1041
I3
sg3167
I1
sg1044
I2
sg1045
I2
sg1046
I14
sg1047
I2
sg1048
I5
sg1049
I2
sg1050
I1
sg1051
I5
sg1052
I3
sg1053
I1
sg1054
I35
sg1055
I1
sg1056
I1
sg1057
I3
sg2791
I1
sg1059
I1
sg1061
I1
sg1062
I4
sg1063
I1
sg764
I2
sg1065
I15
sg1066
I4
sg1067
I1
sg1068
I23
sg2848
I16
sg1697
I1
sg1071
I7
sg1072
I1
sg3173
I1
sg1074
I1
sg2871
I1
sg1076
I1
sg1077
I1
sg1078
I1
sg1991
I1
sg1080
I2
sg2783
I1
sg1081
I1
sg1082
I1
sS'1'
I15
sg1083
I2
sg1084
I1
sg1085
I2
sg1086
I1
sg1087
I1
sg1088
I1
sg1089
I4
sg1090
I1
sg1091
I4
sg438
I3
sg1093
I1
sg1094
I1
sg2630
I1
sg1096
I4
sg1097
I5
sg1098
I2
sg1099
I1
sg1100
I6
sg1101
I85
sg1102
I1
sg3072
I6
sg1104
I1
sg2587
I3
sg1106
I1
sg1107
I1
sg1108
I4
sS'q'
I7
sg1320
I1
sg1110
I101
sg1111
I3
sg325
I4
sg1112
I3
sg1113
I4
sg1114
I2
sg3152
I1
sg1116
I1
sg1117
I1
sg1118
I1
sg1119
I1
sg1121
I18
sg1620
I1
sg3190
I4
sg1123
I1
sg1124
I6
sg1125
I4
sg1126
I14
sg1127
I2
sg1128
I1
sg1129
I1
sg1130
I8
sg1131
I3
sg1132
I18
sg1133
I1
sg3257
I1
sg1135
I1
sg1136
I5
sg1137
I1
sg1138
I5
sg1139
I1
sg1140
I1
sg1246
I1
sg1141
I9
sg1142
I4
sg1143
I1
sg1144
I56
sg1145
I5
sg1147
I1
sg1148
I1
sg1149
I1
sS'3'
I11
sg1151
I1
sg1152
I1
sg1153
I1
sg1403
I1
sg1156
I1
sg1157
I3
sg1158
I2
sg1159
I53
sg1160
I29
sg1161
I2
sg1162
I1
sg1163
I1
sg1164
I2
sg1165
I18
sg1166
I1
sg184
I5
sg1167
I3
sg1169
I1
sg1170
I1
sg1171
I1
sg1172
I1
sg1173
I2
sg1174
I1
sg1175
I1
sg1176
I3
sg1177
I2
sg1178
I1
sg1179
I1
sg1180
I6
sg1181
I1
sg1182
I1
sg1183
I9
sg1184
I21
sg2596
I5
sg1187
I1
sg1188
I1
sg1189
I1
sg1190
I1
sg1191
I7
sg1192
I1
sg1193
I2
sg1194
I1
sg1195
I1
sg1196
I1
sg1197
I7
sg1198
I2
sg1199
I1
sg2683
I1
sg1201
I2
sg1202
I1
sg1204
I1
sg1205
I1
sg1206
I1
sg1207
I1
sg1208
I1
sg1209
I1
sg1210
I1
sg1211
I4
sg1212
I4
sg1213
I1
sg1214
I2
sg1215
I6
sg3198
I1
sg108
I1
sg1218
I2
sg1219
I1
sg1220
I1
sg1221
I1
sg1222
I5
sg1223
I1
sg1224
I1
sg1225
I2
sg1226
I1
sg2020
I1
sg1228
I2
sg1229
I2
sg188
I9
sg1231
I6
sg2814
I1
sg1233
I1
sg1235
I1
sg1236
I18
sg1376
I1
sg1238
I33
sg1239
I4
sg1240
I2
sg2601
I4
sg1242
I1
sg2009
I6
sg1244
I1
sg1245
I2
sg253
I1
sg1247
I73
sg1248
I2
sg1249
I1
sg1250
I2
sg2515
I1
sg1252
I4
sg1253
I5
sg1254
I3
sg1255
I3
sg296
I1
sg298
I5
sg1258
I1
sg1259
I21
sg1260
I1
sg1261
I2
sg1262
I14
sg1263
I8
sg1688
I2
sg1265
I1
sS'2'
I9
sg1266
I1
sg1267
I1
sg1268
I4
sg1269
I13
sg1270
I2
sg1271
I1
sg3061
I1
sg1272
I7
sg1273
I1
sg1274
I134
sg544
I1
sg2237
I1
sg1276
I1
sg1277
I2
sg1278
I3
sg1280
I4
sg1281
I14
sg1282
I1
sg463
I1
sg1284
I2
sg469
I1
sg1286
I2
sg1287
I3
sg1288
I4
sg3279
I1
sg1290
I1
sg1291
I1
sg1292
I3
sg1293
I1
sS'r'
I2
sg1294
I38
sg1295
I2
sg1296
I1
sg546
I1
sg1298
I501
sg1299
I1
sg1300
I1
sg1301
I1
sg1302
I7
sg1303
I1
sg342
I1
sg1305
I5
sg1306
I1
sg1307
I3
sg1308
I1
sg1309
I25
sg604
I1
sg1311
I1
sg1312
I2
sg1275
I1
sg1314
I16
sg1315
I14
sg2806
I5
sg1317
I1
sg2608
I1
sg1319
I1
sg1321
I1
sg2188
I1
sg1323
I1
sg1324
I1
sg1325
I2
sg1326
I2
sg1327
I20
sg1328
I10
sg695
I1
sg1330
I1
sg1331
I1
sg1428
I4
sg2610
I1
sg1334
I1
sg1335
I1
sg1336
I8
sg731
I1
sg1338
I1
sg1339
I3
sg1340
I5
sg1342
I1
sg1343
I2
sg1344
I4
sg3313
I1
sg1345
I1
sg1346
I2
sg2896
I1
sg1348
I3
sg1349
I5
sg1350
I1
sg1351
I2
sg1352
I1
sg1353
I3
sg1354
I13
sg829
I2
sg3542
I1
sg1357
I2
sg1358
I2
sg1359
I1
sg1360
I3
sg1361
I8
sg1362
I2
sg1363
I7
sg1364
I4
sg1365
I1
sg1366
I1
sg1368
I2
sg1369
I1
sg1370
I1
sg867
I3
sg1372
I5
sg965
I1
sg1374
I1
sg1375
I2
sg1377
I2
sg1378
I1
sg1379
I2
sg808
I2
sg1381
I6
sg1382
I1
sg1433
I8
sg3362
I1
sg1020
I16
sg1385
I33
sg1386
I15
sg1388
I1
sg1389
I1
sg1390
I1
sg1391
I1
sg1392
I54
sg1393
I1
sg1394
I1
sg1395
I1
sg1396
I1
sg1397
I3
sg1399
I1
sg1400
I1
sg1401
I2
sg1402
I1
sg1155
I1
sg1404
I1
sg1405
I1
sg1406
I1
sg1407
I3
sg1408
I1
sg1409
I7
sg1410
I3
sg1411
I1
sg1412
I1
sg1413
I1
sg1414
I1
sg3227
I3
sg1416
I16
sg1417
I9
sg1418
I1
sg1419
I1
sg1420
I1
sg1421
I6
sg1422
I1
sg1423
I3
sg1424
I2
sg1425
I1
sg1426
I2
sg1427
I1
sg1332
I1
sg1429
I1
sg1430
I1
sg1431
I1
sg1371
I1
sg1435
I1
sg2032
I1
sg1436
I9
sg1437
I1
sg1438
I3
sg3388
I1
sg1439
I4
sg1440
I1
sg1441
I4
sg1442
I1
sg1443
I1
sg1444
I3
sg1445
I1
sg1447
I1
sg1448
I2
sg1449
I1
sg1450
I3
sg1451
I1
sg1452
I1
sg1453
I1
sg1454
I3
sg1455
I1
sg1456
I1
sg1457
I21
sg1458
I1
sg1459
I2
sg1460
I6
sg1461
I1
sg1462
I1
sg1463
I9
sg665
I2
sg1465
I1
sg1466
I4
sg1547
I2
sg1467
I1
sg1468
I1
sg1469
I1
sg1575
I8
sg1471
I4
sg1472
I1
sg1473
I4
sg1474
I1
sg1475
I5
sg1476
I1
sg1477
I13
sg1478
I1
sg1479
I1
sg3238
I1
sg1480
I4
sg1481
I1
sg1482
I1
sg1483
I1
sg1484
I1
sg1485
I2
sg1486
I1
sg1487
I1
sg1488
I2
sg1489
I1
sg1490
I1
sg1491
I1
sg1492
I1
sg1493
I3
sg1494
I9
sg1495
I6
sg1496
I2
sg3191
I1
sg1497
I3
sg1498
I1
sg1499
I1
sg1500
I2
sg1501
I1
sg1503
I1
sg3345
I1
sg1506
I1
sg1817
I2
sg1510
I9
sg1825
I5
sg1512
I1
sg1513
I5
sg1514
I1
sg2890
I3
sg1516
I1
sg1517
I14
sg1518
I2
sg1519
I1
sg1520
I1
sg1521
I1
sg3016
I1
sg1522
I2
sg1523
I1
sg1524
I1
sg1525
I1
sg1526
I1
sg789
I3
sg1527
I1
sg3246
I1
sg1529
I1
sg1530
I3
sg1531
I9
sg1532
I1
sg3247
I2
sg3062
I1
sg1536
I2
sg1537
I1
sg1538
I2
sg2056
I1
sg1540
I1
sg1541
I1
sg1542
I8
sg1543
I22
sg1544
I3
sg1545
I1
sg1546
I5
sS's'
I3
sg2038
I1
sg834
I2
sg2058
I6
sg1551
I1
sg2060
I1
sg1553
I2
sg1554
I2
sg1555
I1
sg1556
I4
sg1557
I8
sg1558
I1
sg1559
I3
sg1560
I8
sg1561
I1
sg1562
I1
sg1563
I4
sg1564
I1
sg1565
I1
sg2468
I1
sg2062
I1
sg2170
I1
sg3255
I2
sg1568
I1
sg838
I3
sg1570
I1
sg2722
I1
sg839
I4
sg2064
I1
sg1573
I7
sg1574
I1
sg1470
I18
sg1576
I4
sg3466
I1
sg1578
I1
sg1579
I2
sg1580
I6
sg1581
I13
sg1582
I17
sg1583
I2
sg1584
I2
sg1585
I1
sg1586
I1
sg1587
I1
sg1588
I5
sg1589
I5
sg1590
I1
sg1591
I1
sg1592
I1
sg1593
I2
sg1594
I1
sg1595
I5
sg1596
I2
sg2087
I1
sg1597
I1
sg1598
I1
sS'4'
I8
sg1599
I1
sg1600
I1
sg1601
I6
sg1603
I15
sg1604
I1
sg1605
I7
sg1606
I1
sg1607
I1
sg1608
I7
sg2480
I1
sg1610
I1
sg1611
I6
sg2490
I2
sg2497
I1
sg1614
I1
sg2503
I1
sg1134
I2
sg2660
I1
sg1617
I3
sg2075
I3
sg1619
I2
sg54
I1
sg1621
I1
sg1622
I1
sg1623
I3
sg1624
I5
sg1625
I1
sg1626
I1
sg1627
I1
sg2662
I1
sg2462
I3
sg1629
I1
sg2663
I1
sg1630
I1
sg908
I1
sg1631
I1
sg1632
I5
sg1820
I1
sg1633
I1
sg1635
I2
sg1636
I1
sg1637
I1
sg1638
I1
sg855
I2
sg1640
I2
sg1641
I1
sg1642
I1
sg1643
I6
sg1644
I1
sg1645
I1
sg1646
I4
sg1647
I1
sg1648
I2
sg1649
I1
sg810
I3
sg1651
I1
sg1652
I136
sg1653
I1
sg1654
I6
sg1655
I1
sg1656
I1
sg1657
I24
sg1658
I224
sg1659
I1
sg1660
I8
sg1661
I1
sg1662
I1
sg1663
I6
sg1664
I3
sg1665
I1
sg1666
I1
sg1667
I1
sg1668
I1
sg1669
I1
sg1670
I22
sg1671
I15
sg1672
I1
sg1673
I2
sg1674
I2
sg1675
I2
sg1676
I1
sg1678
I4
sg1679
I1
sg1680
I1
sg1681
I1
sg1682
I1
sg1683
I1
sg1684
I1
sg2205
I1
sg1686
I1
sg1687
I46
sg3003
I1
sg1689
I1
sg1690
I113
sg1691
I2
sg1692
I1
sg1693
I37
sg1694
I12
sg1695
I1
sg1696
I4
sg3053
I1
sg1698
I2
sg1699
I2
sg1700
I2
sg1701
I6
sg1203
I1
sg3278
I1
sg1704
I1
sg1705
I1
sg1706
I2
sg1707
I1
sg1708
I2
sg1709
I1
sg1710
I1
sg1711
I1
sg1712
I1
sg1713
I3
sg1714
I1
sg1715
I1
sg1716
I1
sg1717
I1
sg1718
I6
sg1719
I114
sg1720
I1
sg3168
I2
sg1722
I15
sg1723
I2
sg1724
I1
sg1725
I1
sg1727
I1
sg1728
I7
sg1729
I1
sg2809
I1
sg1730
I1
sg1731
I1
sg1732
I2
sg1733
I4
sg1734
I1
sg1735
I2
sg3216
I1
sg1736
I1
sg1737
I6
sg1738
I1
sg1739
I1
sg1740
I5
sg3282
I1
sg3276
I1
sg1742
I1
sg1743
I3
sg1744
I12
sg1745
I1
sg2607
I80
sg1747
I1
sg1748
I63
sg1749
I71
sg1750
I19
sg1751
I11
sg2977
I1
sg1753
I1
sg1754
I1
sg1755
I1
sg1756
I20
sg1758
I3
sg1759
I1
sg1760
I1
sg1761
I2
sg1762
I2
sg1763
I1
sg2100
I1
sg3375
I7
sS'5'
I13
sg1766
I1
sg1767
I335
sg1768
I1
sg1769
I1
sg1770
I5
sg1771
I1
sg1772
I1
sg1773
I1
sg1774
I2
sg876
I2
sg3461
I1
sg1776
I1
sg1777
I1
sg1779
I2
sg2691
I3
sg1781
I1
sg1782
I2
sg1783
I6
sg1784
I1
sg1785
I2
sg1786
I53
sg3516
I1
sg1788
I1
sg1789
I1
sS'u'
I1
sg1790
I4
sg1791
I1
sg2693
I3
sg1793
I1
sg1794
I52
sg1795
I1
sg1796
I11
sg1797
I1
sg1798
I1
sg1799
I2
sg1800
I3
sg1802
I1
sg69
I1
sg1804
I2
sg1805
I2
sg2110
I1
sg1807
I4
sg1808
I1
sg1809
I1
sg1810
I1
sg3292
I2
sg1812
I1
sg1813
I3
sg2879
I1
sg1815
I1
sg1816
I1
sg1509
I4
sg1818
I1
sg1819
I445
sg2885
I1
sg1821
I4
sg1822
I1
sg1823
I1
sg1824
I1
sg1511
I2
sg1826
I1
sg1827
I27
sg1828
I1
sg1829
I11
sg1830
I18
sg1831
I1
sg1832
I2
sg1833
I3
sg1834
I2
sg1835
I2
sg297
I34
sg1837
I9
sg1838
I1
sg1515
I1
sg1840
I1
sg1841
I6
sg1842
I1
sg1844
I1
sg1845
I1
sg1507
I1
sg1847
I1
sg1848
I3
sg1849
I1
sg1850
I2
sg1851
I1
sg1852
I1
sg1853
I4
sg1854
I1
sg1855
I13
sg1856
I1
sg345
I2
sg1858
I4
sg1859
I3
sg1860
I2
sg1861
I2
sg1862
I5
sg1863
I2
sg1864
I1
sg1865
I2
sg1866
I3
sg1867
I1
sg1868
I1
sg1869
I121
sg1870
I1
sg1871
I2
sg1872
I1
sg1873
I1
sg1874
I2
sg1875
I1
sg1876
I2
sg1877
I3
sg446
I2
sg1879
I1
sg302
I2
sg1881
I1
sg954
I4
sg1882
I1
sg1883
I1
sg1884
I3
sg1885
I1
sg1886
I3
sg1887
I2
sg3378
I1
sg1888
I1
sg1889
I1
sg1890
I6
sg1609
I2
sg1891
I1
sg1892
I1
sg1893
I1
sg2065
I1
sg1894
I1
sg1895
I3
sg1896
I1
sg1897
I7
sg1898
I1
sg3387
I1
sg1900
I7
sg1901
I1
sg2561
I1
sg1902
I1
sg1903
I2
sg1904
I1
sg1905
I1
sg1906
I1
sg1907
I1
sg1908
I1
sg1909
I1
sg1910
I2
sg1911
I1
sg1912
I1
sg1913
I1
sg2872
I3
sg1914
I1
sg1915
I1
sg1917
I1
sg1918
I11
sg1919
I7
sg1920
I2
sg2102
I1
sg1922
I1
sg2131
I8
sg1924
I2
sg1925
I2
sg1926
I1
sg1927
I1
sg1928
I2
sg1929
I7
sg900
I3
sg1933
I38
sg1934
I1
sg1935
I1
sS'6'
I4
sg1936
I1
sg1937
I1
sg1938
I1
sg1939
I1
sg1940
I15
sg1941
I1
sg1942
I1
sg1943
I1
sg1944
I1
sg1945
I16
sg1946
I5
sg1947
I2
sg1949
I1
sg872
I1
sg1951
I1
sg1952
I2
sg1953
I1
sg1528
I1
sg1955
I1
sg1956
I3
sg3470
I1
sg1958
I3
sg1959
I1
sg949
I2
sg1961
I1
sg1962
I2
sg1963
I1
sg2720
I3
sg1965
I1
sg1966
I3
sg1967
I1
sg1968
I2
sg1969
I1
sg1970
I1
sg1971
I1
sg1972
I2
sg1974
I1
sg1975
I1
sg1976
I1
sg1977
I3
sg1978
I4
sg1980
I2
sg1981
I2
sg1982
I7
sg1983
I1
sg1984
I2
sg1985
I3
sg1986
I2
sg1987
I1
sg1988
I3
sg1989
I4
sg1990
I1
sg2592
I1
sg1992
I1
sg3458
I4
sg1993
I3
sg1994
I1
sg1383
I1
sg1996
I1
sg1997
I1
sg1998
I1
sg1999
I4
sg2000
I4
sg2001
I1
sg2002
I1
sg2003
I1
sg2004
I1
sg2005
I1
sg2006
I1
sg2007
I1
sg2008
I3
sg1243
I2
sg2010
I1
sg2011
I1
sg2012
I1
sS'a'
I658
sg2013
I4
sg2014
I1
sg2015
I6
sg326
I2
sg2016
I1
sg2017
I1
sg2018
I6
sg2019
I5
sg2022
I1
sg2023
I1
sg2728
I4
sg2025
I4
sg2026
I29
sg2027
I12
sg2028
I3
sg2029
I12
sg2030
I38
sg1387
I1
sg2033
I3
sg2034
I1
sg2035
I1
sg2754
I1
sg2037
I12
sg1548
I14
sg2039
I20
sg2040
I5
sg2041
I5
sg2042
I2
sg2043
I2
sg2044
I5
sg2045
I1
sg2046
I1
sg2047
I2
sg2048
I2
sg3324
I3
sg2050
I1
sg2051
I3
sg2052
I2
sg2053
I1
sg2054
I1
sg2055
I11
sg3338
I1
sg133
I2
sg2057
I1
sg1550
I2
sg2103
I1
sg1552
I2
sg2061
I1
sg2152
I2
sg2063
I2
sg1572
I1
sg2713
I1
sg2067
I1
sg2068
I2
sg1534
I1
sg2070
I2
sg2071
I1
sg2072
I2
sg2073
I1
sg2074
I1
sg1618
I1
sg2076
I13
sg2741
I1
sg2079
I1
sg2080
I2
sg927
I12
sg2083
I11
sg2743
I1
sg2086
I5
sg3209
I1
sg2088
I9
sg2951
I1
sg2090
I1
sg2091
I17
sg2092
I11
sg2093
I16
sg2094
I5
sg930
I7
sg2096
I1
sg1948
I1
sg2098
I1
sg2099
I1
sg1764
I1
sg2101
I19
sg2470
I1
sg1778
I1
sg2104
I2
sg2105
I2
sg2162
I1
sg2107
I4
sg2108
I1
sg2109
I1
sg2748
I2
sg2112
I1
sg215
I1
sg2113
I1
sg2114
I2
sg2115
I4
sg2116
I1
sg1995
I1
sg2118
I1
sg2119
I1
sg2120
I3
sg3333
I1
sg2122
I2
sg2123
I2
sg2124
I1
sg2125
I4
sg2126
I1
sg2127
I1
sg2128
I1
sg2129
I1
sg2130
I1
sg1923
I9
sg2132
I2
sg2133
I1
sg2167
I3
sg2136
I1
sg2137
I1
sg2138
I1
sg2139
I2
sg2140
I13
sg2141
I1
sg2142
I1
sS'w'
I1
sg3344
I6
sg2171
I2
sg2145
I1
sg2146
I1
sg2147
I1
sg171
I3
sg2148
I1
sg2149
I1
sg2150
I1
sg2151
I7
sg2716
I1
sg2153
I3
sg2154
I4
sg2155
I1
sg2156
I1
sg2157
I1
sg2158
I4
sg2159
I1
sg2160
I1
sg2161
I3
sg2106
I1
sg2751
I1
sg2164
I3
sg2165
I3
sg2166
I2
sg768
I1
sg2168
I1
sg2169
I1
sg2143
I1
sg2144
I1
sg2172
I4
sg2173
I3
sg2174
I3
sg2175
I5
sg2176
I5
sg3038
I1
sg2178
I3
sg2232
I1
sg2179
I7
sg2180
I2
sg2181
I1
sg2182
I2
sg2183
I3
sg2184
I1
sg2185
I1
sg2186
I2
sg2187
I1
sg2189
I2
sg2190
I1
sg2191
I4
sg2192
I1
sg2270
I6
sg2194
I1
sg2196
I1
sg2286
I9
sS'b'
I1
sg2199
I1
sg2200
I1
sg2201
I1
sg2327
I1
sS'i'
I382
sg2204
I1
sg3166
I1
sg2206
I2
sg2207
I1
sg2208
I2
sg2209
I2
sg2066
I1
sg2211
I1
sg2212
I2
sg2213
I3
sg2214
I1
sg2215
I1
sg2216
I1
sg2217
I1
sg2218
I1
sg2219
I1
sg2220
I1
sg2221
I1
sg921
I1
sg644
I3
sg2223
I2
sg2224
I2
sg2225
I2
sg2226
I1
sg2227
I1
sg2228
I1
sg2229
I1
sg2230
I1
sg2557
I1
sg2288
I1
sg2233
I1
sg2234
I1
sg2235
I9
sg2236
I1
sg973
I1
sg2238
I2
sg2239
I9
sg2240
I1
sg2241
I1
sg2242
I1
sg2243
I1
sg2244
I1
sg2246
I2
sg2247
I2
sg2248
I1
sg2626
I1
sg3354
I1
sg2251
I2
sg2252
I4
sg2253
I1
sg2254
I1
sg2255
I1
sg2256
I1
sg2257
I1
sg2258
I1
sg2259
I1
sg2260
I1
sg2261
I1
sg2262
I4
sg2263
I1
sg2264
I1
sg2265
I1
sg2266
I3
sg2267
I12
sg2268
I1
sg3134
I1
sg2269
I2
sg2193
I9
sg2272
I1
sg2273
I1
sg2721
I1
sg2275
I4
sg436
I2
sg2277
I1
sS'8'
I1
sg2279
I1
sg2280
I1
sg2281
I158
sg2282
I1
sg2284
I1
sg2901
I1
sg2197
I2
sg2287
I1
sg1502
I1
sg2289
I1
sg2290
I1
sg2923
I1
sg2291
I2
sg2292
I1
sg2293
I2
sg2294
I6
sg2295
I70
sg2296
I1
sg2297
I1
sg2298
I1
sg2299
I2
sg2994
I1
sg3316
I2
sg2301
I1
sg2302
I3
sg2303
I2
sS'x'
I3
sg2304
I4
sg2305
I1
sg2306
I3
sg2307
I1
sg2308
I1
sg2309
I3
sg2310
I2
sg2311
I1
sg2312
I1
sg2313
I1
sg2316
I1
sg2317
I17
sg2318
I1
sg417
I1
sg2320
I104
sg2321
I1
sg2322
I1
sg2323
I2
sg2324
I1
sg2325
I3
sg2326
I2
sg2777
I1
sg826
I1
sg2328
I1
sg2203
I1
sg2330
I2
sg2331
I2
sg2778
I2
sg2333
I6
sg2334
I1
sg2335
I1
sg2336
I3
sg2337
I8
sg2339
I3
sg2340
I1
sg2341
I1
sg2342
I2
sg2343
I1
sg2344
I1
sg2345
I4
sg2346
I1
sg2347
I1
sg2348
I4
sg2349
I2
sg3346
I2
sg2781
I1
sg2351
I1
sg2352
I1
sg2506
I1
sg2353
I1
sg2354
I9
sS'c'
I1
sg379
I5
sg2356
I11
sg2358
I8
sg2359
I1
sg2360
I1
sg2361
I1
sg3319
I1
sg2363
I1
sg2534
I1
sg2365
I1
sg2366
I1
sg2367
I2
sg2368
I5
sg2369
I7
sg3127
I1
sg3376
I7
sg2372
I2
sg2373
I2
sg2374
I4
sg2375
I5
sg2376
I1
sg2377
I1
sg2378
I2
sg2379
I4
sg2380
I2
sg2381
I1
sg2382
I1
sg2383
I1
sg2384
I1
sg2385
I1
sg2386
I5
sg2387
I2
sg3413
I1
sg2388
I1
sg2389
I1
sg2390
I2
sg2391
I1
sg2392
I1
sg2393
I1
sg2394
I4
sg3489
I1
sg2396
I1
sg2397
I1
sg2398
I1
sg3515
I3
sg2400
I1
sg2401
I2
sg2402
I1
sg2403
I4
sg3382
I1
sg2405
I5
sg2406
I7
sg2407
I32
sg2408
I1
sg2409
I1
sg2410
I4
sg2411
I1
sg2412
I1
sg2413
I8
sg2415
I1
sg149
I1
sg27
I1
sg2418
I2
sg2419
I1
sg2420
I16
sg2421
I3
sg2422
I12
sg2423
I1
sg2424
I1
sg2425
I17
sg2426
I1
sg2427
I1
sg383
I1
sg619
I1
sg2430
I2
sg3291
I1
sg2431
I1
sg2432
I1
sg2433
I1
sg2435
I4
sg2436
I1
sg2437
I1
sg2438
I1
sg2439
I3
sg2440
I1
sg2441
I1
sg2442
I2
sg2443
I6
sg2444
I5
sg2445
I2
sg2446
I2
sg2447
I1
sS'9'
I4
sg2448
I1
sg2449
I1
sg2450
I1
sg2451
I1
sg2452
I1
sg2453
I8
sg2454
I3
sg2455
I1
sg2456
I1
sg2457
I1
sg3391
I1
sg2459
I1
sg2460
I7
sg2461
I3
sg2314
I1
sg2463
I1
sg2464
I1
sg3485
I2
sg2465
I1
sg2466
I2
sg2467
I1
sg3018
I1
sg3217
I1
sg2469
I1
sg1042
I1
sg2471
I1
sg386
I1
sg2473
I4
sg3518
I1
sg2475
I3
sg407
I1
sg2477
I1
sS'y'
I2
sg2478
I1
sg2479
I3
sg2481
I2
sg2482
I1
sg623
I5
sg2483
I1
sg2484
I1
sg2485
I2
sg2487
I1
sg1216
I1
sg3030
I1
sg2488
I3
sg2489
I1
sg1612
I4
sg2491
I1
sg2492
I1
sg2932
I2
sg2494
I1
sg2495
I1
sg2222
I12
sg1613
I11
sg2498
I1
sg2499
I1
sg2500
I1
sg2501
I1
sg2502
I4
sg1615
I3
sg2504
I1
sg2910
I1
sg2505
I1
sg45
I1
sg2507
I5
sg2508
I1
sg2509
I1
sg2510
I1
sg2511
I1
sg2512
I12
sg2513
I13
sg2514
I1
sg2516
I2
sg2517
I6
sg606
I1
sg2519
I1
sg2520
I5
sg2521
I1
sg2522
I1
sS'd'
I4
sg2523
I1
sg2524
I1
sg2525
I1
sg2526
I1
sg2527
I1
sg750
I1
sg2532
I1
sg2533
I1
sg1322
I10
sg2536
I1
sg2537
I1
sg2538
I1
sg2539
I18
sg2540
I33
sg2541
I1
sg2542
I1
sg2543
I1
sg2544
I1
sg2545
I2
sg2546
I1
sg2547
I3
sg2548
I1
sg2549
I2
sg2550
I1
sg2535
I2
sg2551
I1
sg2552
I1
sg2553
I1
sg2554
I3
sg2555
I1
sg2556
I1
sg910
I1
sg2558
I2
sg2559
I1
sg2560
I1
sg2245
I1
sg2562
I4
sg2563
I48
sg2564
I1
sg2021
I1
sg3371
I1
sg2567
I1
sg969
I1
sg163
I4
sg2570
I5
sg2571
I1
sg1092
I1
sg2573
I1
sg2574
I1
sg2575
I1
sg2576
I24
sg2577
I2
sg2578
I1
sg2579
I1
sg2580
I13
sg2581
I1
sg2582
I1
sg2583
I2
sg2584
I2
sg3445
I1
sg2586
I1
sg3064
I1
sg2588
I3
sg2589
I1
sg2590
I3
sg2591
I1
sg291
I1
sg3460
I2
sg2594
I1
sg3150
I1
sg2595
I1
sg1185
I1
sg1021
I3
sg2597
I1
sg2598
I3
sg2599
I1
sg2600
I1
sg1628
I1
sg1241
I1
sg2602
I7
sg2636
I2
sg2603
I3
sg2198
I2
sg2605
I1
sg2606
I3
sg3493
I1
sg1318
I1
sg2609
I18
sg1333
I1
sg2611
I1
sg2612
I2
sg2613
I1
sg2614
I1
sg2615
I2
sg2616
I1
sg2617
I1
sg2618
I3
sg2619
I3
sg2416
I2
sg2620
I1
sg2621
I2
sg3329
I1
sg2622
I1
sg1356
I2
sg2623
I3
sg2624
I11
sg2625
I2
sg2249
I2
sg2627
I1
sg2628
I1
sg2629
I2
sg1446
I1
sg3424
I3
sS'z'
I1
sg2633
I5
sg2634
I2
sS'v'
I1
sg462
I1
sg2637
I1
sg2638
I1
sg3450
I1
sg2640
I1
sg2641
I1
sg2642
I1
sg2643
I2
sg2644
I2
sg2645
I1
sg2646
I1
sg2647
I1
sg2648
I1
sg2649
I1
sg2650
I1
sg2651
I1
sg2652
I2
sg2653
I2
sg2654
I1
sg2655
I1
sg434
I2
sg2657
I1
sg2658
I2
sg2659
I1
sg1616
I1
sg2661
I8
sg3230
I1
sg1685
I1
sg2664
I1
sg2665
I1
sg2666
I2
sg2991
I1
sg2667
I1
sg2668
I1
sg2669
I1
sg2670
I2
sg2671
I1
sg2672
I1
sg2673
I2
sg2674
I1
sg2675
I3
sg444
I4
sg2677
I4
sg2678
I5
sg2679
I1
sg2680
I2
sg2681
I2
sg2682
I1
sg2870
I1
sg2685
I1
sg2686
I10
sg2687
I4
sg2688
I1
sg2689
I1
sg2690
I2
sg101
I1
sg2692
I16
sg1792
I12
sg2694
I3
sg2695
I1
sg2696
I1
sg2697
I1
sg2698
I5
sg1843
I1
sg2700
I1
sg2701
I1
sg2702
I3
sg2703
I27
sg2704
I1
sg2705
I4
sg2852
I5
sg1954
I1
sg2708
I1
sg2709
I1
sg2710
I12
sg2711
I6
sg2712
I1
sg1070
I2
sg2715
I1
sg2717
I2
sg2718
I1
sg2719
I2
sg1964
I1
sg1973
I1
sg1979
I1
sg2723
I3
sg2724
I1
sg2725
I2
sg2726
I1
sg2024
I4
sg2730
I2
sg3185
I1
sg2732
I4
sg2733
I1
sg2734
I2
sg2210
I2
sg2736
I3
sg2737
I1
sg2975
I1
sg2738
I1
sg2739
I1
sg2740
I1
sg2078
I1
sg2742
I1
sg2085
I1
sg2744
I2
sg2745
I1
sg2746
I1
sg2747
I8
sg2111
I2
sg2749
I1
sg2750
I1
sg2163
I1
sg2752
I3
sg2753
I1
sg3443
I1
sg2755
I2
sg3444
I1
sg2757
I2
sg1801
I1
sg2759
I5
sg2760
I1
sg1043
I1
sg2761
I2
sg2762
I1
sg2763
I1
sg2764
I1
sg2765
I2
sg2766
I1
sg2767
I1
sg2768
I3
sg2769
I1
sg2770
I3
sg2771
I2
sg461
I2
sg2865
I1
sg2772
I1
sg2773
I1
sg2774
I2
sg3153
I1
sg2776
I3
sg566
I1
sg2332
I2
sg2779
I1
sg2780
I1
sg2350
I1
sg2782
I2
sg11
I1
sg2081
I1
sg2785
I11
sg879
I3
sg2787
I1
sg2788
I1
sg2789
I1
sg2790
I12
sg2792
I1
sg2793
I1
sg2794
I1
sg2795
I2
sg2796
I2
sg2797
I3
sg2798
I1
sg2799
I2
sg2800
I2
sg2801
I1
sg2802
I6
sg2803
I6
sg2805
I5
sg2807
I2
sg2808
I1
sg2077
I1
sg2810
I5
sg2811
I1
sg2812
I1
sg2813
I1
sg2815
I6
sg2816
I1
sg2817
I7
sg2818
I1
sg2819
I1
sg2820
I1
sg2821
I6
sg2822
I11
sg2823
I41
sg2874
I3
sg2059
I2
sg2274
I1
sg2825
I1
sg2826
I1
sg2875
I2
sg2828
I1
sg2829
I18
sg2830
I11
sg2831
I2
sg2832
I1
sg2833
I1
sg2834
I3
sg3175
I2
sg2836
I1
sg2837
I1
sg2838
I1
sg2839
I1
sg460
I3
sg2841
I1
sg2842
I1
sg2843
I12
sg2844
I1
sg2845
I1
sg2846
I74
sg2847
I1
sg1069
I3
sg3172
I1
sg2684
I1
sg2850
I2
sg2851
I1
sg915
I1
sg2699
I2
sg3457
I2
sg2854
I20
sg2855
I1
sg2878
I4
sg2857
I1
sg2858
I7
sg2731
I1
sg2860
I1
sg1504
I1
sg2862
I82
sg2863
I1
sg3063
I2
sg2866
I2
sg2867
I2
sg2868
I2
sg2869
I1
sg1075
I3
sg2804
I2
sg2873
I1
sg177
I1
sg2827
I1
sg2876
I1
sg2877
I1
sg2856
I2
sg2947
I1
sg2880
I15
sg2881
I1
sg2882
I1
sg2883
I1
sg2884
I2
sg2899
I1
sg2886
I2
sg2887
I1
sg2888
I1
sg2889
I1
sg454
I2
sg2891
I1
sg2892
I2
sg2893
I2
sg2894
I2
sg2895
I1
sg2897
I4
sg2898
I1
sg2900
I2
sg2976
I1
sg2902
I1
sg2903
I1
sg2905
I3
sg471
I3
sg2907
I1
sg2908
I1
sg2909
I1
sg950
I1
sg2911
I1
sg2912
I1
sg3041
I1
sg2914
I3
sg2915
I6
sg2917
I1
sg2918
I6
sg2919
I6
sg2920
I1
sg2921
I1
sg2922
I4
sg2924
I2
sg2925
I1
sg2926
I1
sg2927
I1
sg2928
I1
sg2929
I1
sg2930
I2
sg2931
I1
sg3293
I1
sg2933
I1
sg2934
I1
sg2935
I5
sg2936
I13
sg2937
I1
sg2938
I1
sg2939
I1
sg2940
I2
sg2941
I4
sg2942
I2
sg2943
I1
sg2944
I2
sg2945
I1
sg2946
I1
sg2948
I1
sg2949
I1
sg2950
I1
sg2952
I2
sg2953
I3
sg2954
I1
sg2955
I1
sg2956
I1
sg2957
I19
sg2958
I1
sg2959
I1
sg2961
I13
sg2962
I4
sg2963
I1
sg2964
I1
sg3222
I1
sg2965
I2
sg2966
I4
sg2967
I1
sg2968
I63
sg2134
I1
sg2970
I2
sg2971
I1
sg2972
I1
sg2973
I2
sg2974
I1
sg2729
I1
sg2979
I2
sg2980
I1
sg2981
I2
sg2982
I1
sg2983
I2
sg2984
I1
sg2985
I12
sg2986
I1
sg2569
I1
sg2987
I1
sg2988
I1
sg2989
I2
sg2990
I1
sg3527
I1
sg2992
I27
sg2993
I2
sg2995
I3
sg2996
I1
sg2997
I85
sg2998
I3
sg2999
I1
sS"'"
I51
sg3000
I3
sg3001
I1
sg3002
I1
sg3004
I3
sg58
I11
sg3006
I1
sg3007
I2
sg3008
I2
sg3009
I3
sg3010
I1
sg3011
I1
sg3012
I1
sg3013
I1
sg3014
I1
sg3015
I1
sg2631
I1
sg3017
I1
sg1464
I1
sg3019
I1
sg3020
I1
sg3021
I1
sg3022
I1
sg155
I1
sg3024
I1
sg3025
I2
sg3026
I20
sg3027
I2
sg3028
I4
sg1237
I3
sg3029
I2
sg956
I5
sg1095
I4
sg3031
I1
sg2329
I1
sg3033
I3
sg3034
I1
sg496
I1
sg3336
I3
sg3035
I8
sg3036
I1
sg3037
I4
sg3039
I10
sg3040
I1
sg2913
I2
sg278
I6
sg3043
I1
sg3044
I1
sg3045
I1
sg3046
I7
sg3047
I2
sg3048
I1
sg3049
I10
sg3050
I2
sg3051
I1
sg3054
I2
sg3055
I23
sg3056
I3
sg3463
I1
sg3057
I2
sg3058
I1
sg3059
I1
sg3060
I1
sg1146
I1
sg392
I1
sg416
I2
sg3066
I2
sg3067
I2
sg3068
I2
sg3069
I1
sg3070
I1
sg3071
I2
sg1103
I7
sg3073
I1
sg3074
I5
sg3075
I3
sg3076
I1
sg3077
I2
sg2319
I25
sg3079
I10
sg3080
I3
sg3081
I2
sg1105
I4
sg3082
I2
sg3083
I1
sg3084
I2
sg3085
I1
sg3086
I1
sg3087
I1
sg3088
I1
sg3089
I5
sg3256
I1
sg3090
I1
sg3091
I1
sg3092
I2
sg3093
I1
sg3094
I5
sg3095
I1
sg3096
I2
sg3097
I82
sg3098
I1
sg3099
I15
sg3100
I7
sg3101
I4
sg3102
I1
sg3103
I2
sg3104
I3
sg3105
I1
sg3106
I3
sg3107
I1
sg3108
I1
sg3109
I15
sg3110
I2
sg3111
I2
sg3112
I2
sg3113
I1
sg3114
I1
sg3115
I1
sg3116
I2
sg1899
I1
sg3118
I1
sg3119
I25
sg3120
I2
sg3121
I1
sg3122
I3
sg3123
I5
sg3124
I63
sg3125
I3
sg3126
I1
sg1154
I1
sg3128
I4
sg3129
I1
sg122
I3
sg3130
I11
sg837
I1
sg3132
I1
sg3133
I2
sg2338
I1
sg3135
I1
sg3136
I2
sg3137
I1
sg3138
I1
sg3139
I1
sg3140
I1
sg3141
I3
sg3142
I2
sg3143
I3
sg3144
I1
sg3145
I1
sg3146
I1
sg3147
I2
sg3148
I3
sg3149
I4
sg1932
I1
sg968
I1
sg1115
I2
sg3154
I2
sg3155
I1
sg3156
I1
sg3157
I1
sg3158
I1
sg3159
I2
sg3161
I9
sg3162
I1
sg1029
I1
sg1040
I1
sg2706
I1
sg1757
I1
sg3169
I6
sg3170
I5
sg3171
I1
sg263
I1
sg1073
I1
sg3174
I1
sg3341
I2
sg3176
I1
sg3177
I1
sg3178
I1
sg3179
I2
sg3180
I5
sg3181
I3
sg3182
I4
sg3183
I13
sg3184
I4
sg2835
I1
sg3186
I1
sg3187
I1
sg3188
I2
sg3482
I1
sg3189
I2
sg1122
I3
sg3164
I1
sg3192
I4
sg3193
I2
sg3194
I2
sg3195
I1
sg3196
I107
sg3510
I7
sg2315
I1
sg3199
I1
sg3200
I2
sg3201
I1
sg3202
I1
sg3203
I1
sg3204
I2
sg3205
I4
sg3206
I2
sg3207
I1
sg3208
I1
sg3210
I1
sg3211
I2
sg1341
I1
sg2531
I1
sg3214
I1
sg3215
I1
sg1060
I1
sg248
I1
sg3218
I1
sg3219
I3
sg3220
I1
sg3221
I1
sg1398
I1
sg3223
I1
sg3224
I2
sg3225
I2
sg3226
I1
sg1415
I8
sg3228
I1
sg1539
I1
sg3229
I1
sg1432
I1
sg3231
I1
sg3232
I1
sg3233
I1
sg3234
I4
sg3235
I14
sg3237
I1
sg190
I5
sg3239
I1
sg3240
I1
sg3241
I2
sg3242
I3
sg3243
I1
sg3244
I13
sg3245
I2
sg3160
I1
sg1533
I1
sg3248
I1
sg3052
I1
sg3250
I1
sg3251
I2
sg3252
I1
sg3253
I2
sg3254
I1
sg1567
I1
sg237
I1
sg2960
I1
sg3258
I1
sg3259
I2
sg3260
I7
sg3261
I1
sg3262
I6
sg3263
I1
sg3264
I2
sg534
I7
sg3266
I2
sg3267
I7
sg3268
I2
sg3269
I1
sg3270
I1
sg3271
I52
sg3272
I1
sg3274
I1
sg3275
I6
sg1577
I1
sg3277
I1
sg1703
I1
sg3280
I1
sg3281
I1
sg487
I1
sg3283
I2
sg2357
I1
sg3285
I1
sg3286
I1
sg3287
I2
sg3288
I1
sg3289
I3
sg3290
I4
sg2530
I1
sg1746
I3
sg3294
I1
sg3295
I1
sg3296
I1
sg3297
I1
sg540
I2
sg3298
I1
sg3299
I1
sg3300
I1
sg3301
I21
sg3302
I2
sg3303
I1
sg3304
I3
sg3305
I1
sg3306
I1
sg3307
I4
sg3308
I1
sg3309
I1
sg3310
I1
sg3311
I2
sg3312
I1
sg36
I1
sg3314
I1
sg3315
I3
sg1752
I3
sg3317
I2
sg3318
I2
sg1702
I2
sg3320
I2
sg1150
I1
sg3321
I1
sg3322
I7
sg3323
I1
sg2049
I2
sg3325
I5
sg3326
I1
sg3327
I1
sg3328
I21
sg2084
I1
sg2097
I2
sg3331
I1
sg3332
I11
sg2121
I1
sg3334
I1
sg3335
I2
sg2031
I1
sg3337
I1
sg1602
I1
sg3339
I2
sg3340
I1
sg3342
I1
sg1200
I19
sg3343
I23
sg2195
I1
sg2414
I1
sg2271
I1
sg3347
I4
sg2735
I1
sg3348
I1
sg3349
I31
sg3350
I2
sg3351
I2
sg3352
I18
sg3353
I3
sg2250
I1
sg3355
I1
sg3356
I1
sg3357
I1
sg3358
I1
sg3359
I1
sg3360
I3
sg2486
I1
sg1931
I1
sg3363
I1
sg3364
I1
sg3365
I2
sg2775
I3
sg3366
I3
sg3367
I1
sg3368
I1
sg3369
I1
sg3370
I1
sg3372
I1
sg3373
I1
sg3374
I1
sg1765
I3
sg2635
I2
sg3377
I2
sg853
I1
sg3379
I2
sg3380
I1
sg3381
I2
sg2404
I1
sg3383
I1
sg3384
I1
sg3386
I2
sg2434
I1
sg1814
I1
sg3389
I4
sg3390
I3
sg2458
I1
sg3392
I1
sg3393
I1
sg3394
I4
sg3395
I52
sg3396
I2
sg3397
I2
sg3398
I2
sg3399
I1
sg3400
I1
sg3401
I2
sg3403
I1
sg3404
I45
sg3405
I8
sg3406
I1
sg3407
I2
sg3408
I3
sg3409
I1
sg3410
I1
sg3411
I1
sg3412
I2
sg3547
I1
sg3414
I2
sS'e'
I2
sg3415
I5
sg3416
I1
sg3417
I1
sg3418
I34
sg3419
I5
sg3420
I1
sg3421
I3
sg3422
I7
sg3423
I1
sg2632
I1
sg3425
I1
sg3426
I3
sg3427
I15
sg3428
I1
sg3429
I2
sg3430
I1
sg3431
I1
sg3432
I1
sg3433
I3
sg3434
I2
sg3435
I1
sg3236
I1
sg3437
I16
sg1007
I2
sg560
I2
sS'?'
I383
sg3440
I1
sg3441
I1
sg3442
I1
sg3438
I1
sg2756
I1
sg160
I4
sg3446
I1
sg3447
I1
sg3448
I1
sg3449
I1
sg2036
I2
sg3451
I2
sg3452
I1
sg3453
I1
sg3454
I1
sg3455
I3
sg3456
I3
sg2853
I1
sg3213
I50
sg3459
I10
sg343
I1
sg3462
I2
sg2528
I1
sg3273
I1
sg3465
I1
sg2916
I1
sg3467
I10
sg3468
I3
sg3469
I6
sg3471
I5
sg3472
I6
sg3473
I1
sg3474
I2
sg3475
I2
sg3476
I2
sg3477
I6
sg3478
I2
sg3479
I2
sg3480
I1
sg3481
I1
sg1367
I1
sg3483
I5
sg3484
I1
sg1839
I1
sg3486
I2
sg3487
I4
sg3488
I1
sg2395
I2
sg3490
I1
sg3491
I5
sg3492
I1
sg2727
I1
sg3494
I18
sg3495
I10
sg3496
I2
sg3497
I1
sg3498
I92
sg3499
I1
sg3500
I2
sg3501
I1
sg3502
I1
sg3503
I2
sg3504
I12
sg3505
I269
sg3506
I4
sg3507
I8
sg3508
I3
sg3509
I2
sg3197
I2
sg3511
I2
sS'j'
I1
sg3512
I1
sg3513
I2
sg3514
I1
sg2399
I5
sg1916
I1
sg3517
I2
sg3519
I2
sg3520
I1
sg3521
I11
sg3522
I1
sg3523
I1
sg3524
I1
sg3525
I1
sg3526
I1
sg1120
I1
sg3528
I2
sg3529
I5
sg1677
I1
sg3531
I1
sg3532
I1
sg3533
I1
sg3534
I2
sg1726
I1
sg3536
I2
sg3537
I1
sg3538
I1
sg3539
I1
sg3540
I2
sg3541
I27
sg3402
I1
sg3543
I3
sg3544
I1
sg3545
I1
sg3546
I5
sg3548
I1
sg3549
I3
sg3550
I1
sg3551
I1
sg3552
I5
sg3553
I1
sg3554
I1
sg3555
I3
sg3556
I2
sg2566
I3
sg3557
I1
sg3558
I1
sg3559
I1
sg3560
I1
sg3561
I1
sg3562
I2
sg3563
I1
sg3564
I1
ssS'split'
p3568
S' '
sS'filters'
p3569
S'!"#$%&()*+-/:;<=>@[\\]^_`{|}~\t\n'
p3570
sS'word_docs'
p3571
(dp3572
g9
I1
sg1316
I2
sg10
I1
sg2231
I1
sg12
I4
sg13
I3
sg14
I1
sg15
I1
sg16
I2
sg17
I1
sg18
I10
sg19
I1
sg3464
I1
sg21
I1
sg878
I1
sg23
I2
sg24
I1
sg25
I1
sg26
I1
sg1650
I1
sg2417
I1
sg1846
I1
sg295
I1
sg28
I1
sg29
I5
sg30
I1
sg31
I1
sg32
I14
sg33
I1
sg34
I2
sg35
I1
sg377
I1
sg37
I1
sg38
I1
sg39
I1
sg210
I1
sg2861
I1
sg41
I1
sg42
I9
sg43
I2
sg44
I1
sg46
I1
sg47
I1
sg48
I8
sg49
I1
sg50
I1
sg51
I1
sg52
I2
sg53
I1
sg55
I1
sg56
I1
sg57
I1
sg3005
I3
sg59
I1
sg60
I1
sg61
I2
sg2371
I1
sg62
I1
sg63
I2
sg64
I1
sg65
I1
sg66
I3
sg67
I1
sg68
I1
sg1803
I1
sg70
I11
sg71
I3
sS'n'
I1
sg72
I14
sg598
I1
sg74
I1
sg75
I3
sg76
I1
sg77
I1
sg78
I1
sg79
I1
sg80
I1
sg81
I1
sg82
I1
sg83
I2
sg84
I2
sg476
I2
sg20
I1
sg86
I12
sg87
I1
sg88
I24
sg89
I1
sg90
I1
sg91
I3
sg22
I2
sg92
I1
sg93
I17
sg94
I17
sg95
I1
sg96
I3
sg1811
I1
sg97
I1
sg98
I1
sg99
I4
sg100
I3
sg429
I1
sg102
I2
sg103
I2
sg828
I2
sg104
I1
sg105
I1
sg106
I1
sg2370
I2
sg107
I1
sg1217
I1
sg109
I1
sg110
I1
sg111
I1
sg112
I1
sg113
I5
sg114
I3
sg115
I47
sg116
I1
sg117
I2
sg118
I1
sg2824
I2
sg119
I1
sg120
I1
sg121
I1
sg705
I2
sg123
I1
sg124
I1
sg125
I1
sg126
I1
sg127
I23
sg128
I1
sg129
I1
sg130
I2
sg131
I1
sg132
I20
sg2283
I1
sg134
I1
sg1289
I1
sg135
I1
sg136
I2
sg137
I7
sg138
I1
sg139
I1
sg2069
I1
sg140
I1
sg141
I1
sg142
I1
sg143
I1
sg144
I2
sg145
I1
sg146
I1
sg147
I2
sg868
I2
sg150
I1
sg151
I1
sg152
I2
sg153
I1
sg154
I1
sg3023
I1
sg156
I2
sg157
I3
sg158
I1
sg159
I1
sg903
I1
sg161
I7
sg162
I67
sg917
I8
sg164
I7
sg614
I1
sg166
I12
sg167
I2
sg168
I1
sg169
I1
sg170
I1
sg1227
I1
sg172
I1
sg173
I1
sg174
I107
sg175
I2
sg176
I1
sg178
I16
sg179
I1
sg180
I1
sg181
I7
sg182
I2
sg183
I14
sg1355
I2
sg1079
I1
sg185
I1
sg186
I1
sg187
I9
sg1806
I1
sg1230
I7
sg189
I1
sg2676
I2
sg191
I2
sg621
I1
sg192
I2
sg193
I62
sg194
I4
sg195
I1
sg196
I1
sg2474
I1
sg197
I6
sg198
I3
sg199
I1
sg3530
I1
sg200
I1
sg201
I29
sg202
I1
sg1434
I1
sg204
I3
sg3361
I3
sg205
I1
sg206
I7
sg207
I1
sg208
I1
sg209
I1
sg40
I2
sg211
I1
sg212
I2
sg213
I1
sg214
I7
sg2593
I2
sg3032
I1
sg216
I1
sg217
I2
sg218
I1
sg219
I3
sg220
I1
sg221
I1
sg624
I14
sg223
I3
sg224
I1
sg225
I1
sg226
I1
sg227
I3
sg228
I1
sg229
I19
sg1836
I1
sg230
I1
sg231
I1
sg232
I3
sg233
I1
sg234
I1
sg235
I18
sg236
I1
sg238
I1
sg239
I3
sS','
I183
sg240
I2
sg241
I7
sg1960
I1
sg242
I1
sg243
I34
sg244
I23
sg245
I1
sg3035
I6
sg247
I1
sg249
I6
sg250
I1
sg251
I3
sg252
I1
sg254
I62
sg255
I1
sg256
I1
sg257
I2
sg258
I1
sg259
I1
sg260
I3
sg261
I1
sg262
I1
sg264
I2
sg265
I3
sg266
I1
sg267
I2
sg268
I14
sg269
I1
sg270
I6
sg271
I9
sg636
I1
sg273
I1
sg274
I1
sg275
I1
sg276
I1
sg277
I1
sg841
I2
sg279
I1
sg280
I1
sg281
I2
sg282
I1
sg283
I1
sg284
I2
sg285
I5
sg286
I1
sg3212
I1
sg287
I4
sg288
I7
sg289
I1
sg290
I1
sg292
I1
sg293
I1
sg294
I1
sg2714
I1
sg1256
I1
sg1186
I1
sg1257
I2
sg299
I1
sg2117
I1
sg300
I1
sg301
I13
sg1880
I1
sg303
I1
sg304
I1
sg305
I2
sg306
I1
sg307
I1
sg308
I3
sg309
I1
sg310
I1
sg311
I14
sg312
I1
sg313
I1
sg314
I1
sg315
I1
sg316
I1
sg317
I1
sg318
I1
sg319
I1
sg320
I3
sg321
I4
sS'7'
I4
sg322
I1
sg323
I1
sg324
I1
sg2285
I1
sg2276
I1
sg425
I1
sg327
I1
sg328
I1
sg329
I1
sg330
I4
sg331
I1
sg332
I1
sg333
I1
sg334
I3
sg335
I2
sg336
I1
sg337
I1
sg338
I1
sg339
I5
sg340
I1
sg341
I1
sg1264
I5
sg344
I1
sg1857
I3
sg346
I2
sg347
I8
sg348
I2
sg349
I1
sg350
I3
sg351
I3
sg352
I1
sg353
I16
sg2969
I1
sg354
I1
sg355
I1
sg356
I8
sg357
I5
sg358
I3
sg359
I1
sg360
I2
sg361
I2
sg362
I9
sg363
I1
sg364
I1
sg3042
I1
sg365
I1
sg366
I1
sg367
I2
sg368
I3
sg369
I1
sg370
I1
sg371
I1
sg372
I4
sg373
I1
sg374
I2
sg375
I2
sg376
I6
sg3284
I1
sg378
I1
sg2355
I3
sg380
I1
sg381
I1
sg382
I7
sg2428
I1
sg384
I1
sg385
I5
sg2472
I1
sg387
I1
sg388
I3
sg389
I2
sg390
I1
sg391
I7
sg393
I1
sg394
I8
sg395
I1
sg396
I1
sg397
I8
sg398
I1
sg399
I3
sg400
I3
sg401
I1
sg402
I1
sg403
I1
sg404
I3
sg405
I1
sg1109
I1
sg406
I1
sg2476
I1
sg408
I2
sg409
I1
sg410
I1
sg411
I1
sg412
I1
sg413
I1
sg414
I1
sg415
I4
sg3065
I3
sg418
I1
sg419
I1
sg420
I1
sg421
I1
sg3330
I2
sg422
I1
sg423
I1
sg424
I1
sg2585
I1
sg426
I1
sg427
I1
sg428
I1
sg2604
I1
sg430
I1
sg431
I3
sg432
I1
sS'm'
I1
sg433
I6
sg2656
I1
sg435
I1
sg2202
I1
sg437
I1
sg818
I3
sg439
I12
sg440
I1
sg441
I5
sg442
I1
sg443
I1
sg2707
I1
sg445
I1
sg1878
I2
sg447
I1
sg448
I1
sg449
I1
sg450
I1
sg451
I4
sg452
I1
sg453
I1
sg2784
I1
sg455
I2
sg870
I1
sg2364
I1
sg457
I1
sg2089
I2
sg458
I1
sg459
I3
sg1058
I1
sg2849
I1
sg1283
I1
sg464
I1
sg465
I2
sg466
I1
sg467
I86
sg468
I1
sg1285
I4
sg470
I4
sg2906
I4
sg472
I1
sg473
I2
sg474
I1
sg475
I1
sg85
I14
sg477
I1
sg478
I2
sg479
I1
sg480
I1
sg481
I2
sg482
I1
sg483
I4
sg484
I13
sg485
I1
sg486
I1
sg1741
I2
sg488
I1
sg489
I2
sg490
I10
sg491
I1
sg492
I1
sg493
I1
sg494
I1
sg495
I2
sg2518
I1
sg497
I1
sg498
I1
sg499
I3
sg500
I3
sg501
I1
sg502
I1
sg503
I2
sg3078
I1
sg504
I2
sg505
I1
sg506
I6
sg507
I1
sg508
I1
sg509
I9
sg783
I1
sg511
I1
sg512
I1
sg513
I42
sg514
I1
sg515
I3
sg516
I13
sg517
I2
sg518
I8
sg519
I3
sg520
I1
sg521
I2
sg522
I1
sg523
I3
sg524
I1
sg525
I1
sg526
I27
sg527
I11
sg528
I1
sg529
I1
sg530
I2
sg531
I2
sg532
I1
sg533
I2
sg3265
I1
sg535
I2
sg536
I2
sg537
I2
sg538
I1
sg539
I2
sg630
I1
sg541
I1
sg542
I2
sg543
I1
sg544
I1
sg545
I2
sg1297
I1
sg1780
I5
sg547
I1
sg548
I1
sg549
I29
sg550
I1
sg551
I1
sg552
I2
sg553
I1
sg554
I1
sg1232
I1
sg555
I1
sg556
I1
sg557
I2
sg558
I3
sg559
I1
sg3439
I1
sg561
I1
sg562
I11
sg563
I2
sg564
I3
sg565
I1
sg567
I6
sg568
I25
sS'.'
I347
sg569
I1
sg570
I1
sg571
I14
sg572
I2
sg573
I2
sg574
I1
sg575
I1
sg576
I2
sg577
I1
sg578
I1
sg579
I1
sg580
I8
sg1304
I1
sg581
I2
sg582
I1
sg583
I1
sg584
I2
sg585
I1
sg586
I3
sg587
I2
sg588
I3
sg589
I1
sg590
I1
sg591
I1
sg592
I31
sg593
I3
sg594
I1
sg595
I1
sg596
I1
sg597
I2
sg73
I1
sg599
I2
sg600
I1
sg601
I2
sg602
I2
sg603
I1
sg1310
I2
sg2840
I1
sg605
I1
sg607
I1
sg608
I1
sg609
I1
sg610
I1
sg611
I1
sg612
I122
sg613
I123
sg165
I1
sg615
I1
sg616
I113
sg617
I1
sg618
I1
sg620
I1
sg1313
I1
sg622
I40
sg1634
I1
sg966
I1
sg625
I1
sg626
I1
sg627
I1
sg628
I1
sg629
I3
sg631
I3
sg773
I1
sg632
I1
sg633
I1
sg634
I3
sg635
I1
sg2135
I1
sg272
I1
sg637
I1
sg638
I1
sg2429
I1
sg639
I1
sg640
I1
sg641
I2
sg642
I2
sg643
I11
sg3436
I1
sg1787
I1
sg645
I1
sg646
I3
sg647
I1
sg648
I5
sg649
I1
sg650
I2
sg651
I1
sg652
I1
sg653
I1
sg654
I1
sg655
I1
sg656
I1
sg657
I1
sg658
I7
sg659
I1
sg660
I284
sg661
I1
sg662
I19
sg663
I1
sg664
I2
sg456
I59
sg666
I2
sg667
I1
sg668
I1
sg669
I1
sg670
I1
sg671
I1
sg672
I1
sg673
I3
sg674
I2
sg675
I6
sg676
I7
sg677
I1
sg510
I1
sg678
I1
sg679
I1
sg680
I1
sg681
I29
sg682
I1
sg683
I1
sg684
I1
sg685
I1
sg686
I2
sg687
I1
sg688
I2
sg689
I1
sg690
I3
sg1535
I1
sg691
I1
sg692
I1
sg1921
I2
sg694
I5
sg1329
I1
sg696
I1
sg697
I2
sg698
I1
sg699
I2
sg700
I2
sg701
I1
sg703
I1
sg702
I1
sg1279
I1
sg704
I3
sg693
I1
sg706
I1
sg707
I1
sg708
I1
sg709
I1
sg710
I3
sg711
I1
sg712
I1
sg713
I1
sg714
I1
sg715
I1
sg716
I1
sg717
I1
sg718
I13
sg719
I16
sg720
I14
sg721
I2
sg722
I21
sg723
I1
sg2859
I2
sg724
I1
sg725
I2
sg726
I4
sg727
I3
sg728
I10
sg729
I1
sg730
I4
sg1337
I1
sg732
I1
sg733
I1
sg734
I91
sg735
I1
sg736
I2
sg3117
I1
sg737
I4
sg738
I2
sg739
I3
sg740
I4
sg741
I1
sg742
I1
sg743
I2
sg744
I1
sg745
I4
sg746
I3
sg747
I1
sg748
I1
sg749
I1
sg2639
I1
sg750
I1
sg751
I1
sg752
I1
sg753
I1
sg754
I3
sg1017
I2
sg756
I1
sg757
I1
sg758
I1
sg759
I1
sg760
I2
sg761
I1
sg762
I1
sg763
I4
sg1064
I8
sS'o'
I1
sg765
I1
sg2300
I1
sg766
I5
sg767
I2
sg769
I1
sg770
I1
sg3385
I1
sg771
I2
sg772
I3
sg911
I1
sg774
I1
sg775
I9
sg776
I20
sg1347
I1
sg778
I1
sg779
I1
sg780
I1
sg781
I1
sg782
I1
sg784
I3
sg2362
I1
sg785
I1
sg786
I1
sg787
I1
sg788
I2
sg2978
I1
sg790
I18
sg791
I1
sg792
I2
sg793
I85
sg794
I8
sg795
I7
sg796
I1
sg797
I2
sg798
I1
sg799
I3
sg800
I1
sg801
I1
sg802
I1
sg803
I1
sg804
I21
sg805
I1
sg806
I1
sg807
I1
sg1380
I4
sg809
I1
sg971
I1
sg811
I1
sg812
I1
sg3535
I3
sg813
I1
sg814
I3
sg815
I6
sg816
I1
sg817
I2
sg2758
I1
sg819
I1
sg820
I1
sg821
I1
sg822
I1
sg823
I1
sg824
I1
sg827
I1
sg1505
I1
sg1508
I1
sg830
I1
sg831
I1
sg832
I1
sg833
I1
sg1549
I5
sg835
I6
sg836
I1
sg3131
I6
sg1569
I1
sg1571
I38
sg840
I1
sg2864
I56
sg842
I1
sg843
I1
sg844
I1
sg845
I2
sg846
I1
sg847
I2
sg848
I2
sg849
I1
sg850
I1
sg851
I1
sg852
I1
sg2786
I1
sg854
I1
sg1639
I1
sg856
I2
sg857
I1
sg858
I2
sg859
I4
sg1251
I1
sg1566
I1
sg860
I1
sg861
I1
sg862
I1
sg863
I1
sg864
I5
sg865
I1
sg866
I1
sg1721
I2
sg148
I4
sg869
I1
sg871
I1
sg1950
I1
sg873
I5
sg874
I1
sg1775
I25
sg877
I3
sg880
I1
sg881
I1
sg882
I1
sg883
I1
sg884
I1
sg885
I1
sg886
I1
sg887
I2
sg888
I1
sg889
I2
sg890
I2
sg891
I3
sg892
I4
sg893
I4
sg894
I2
sg895
I1
sg896
I1
sg897
I2
sg3249
I1
sg898
I8
sg899
I1
sS'0'
I1
sg901
I11
sg902
I1
sg2904
I1
sg904
I1
sg905
I1
sg906
I4
sg907
I3
sg1957
I1
sg909
I1
sg912
I1
sg913
I1
sg914
I3
sg916
I1
sg1168
I1
sg918
I4
sg919
I2
sg920
I2
sg921
I1
sg922
I2
sg923
I1
sg924
I1
sg925
I2
sg926
I60
sg2082
I6
sg928
I1
sg929
I1
sg2095
I2
sg931
I2
sg932
I1
sg933
I2
sS'p'
I3
sg934
I1
sg935
I2
sg936
I1
sg937
I29
sg938
I1
sg939
I3
sg940
I2
sg941
I1
sg942
I1
sg943
I1
sg944
I1
sg945
I42
sg946
I1
sg947
I1
sg948
I1
sg2177
I1
sg951
I3
sg952
I1
sg953
I1
sg2565
I1
sg955
I1
sg875
I1
sg957
I1
sg958
I3
sg959
I1
sg960
I1
sg961
I1
sg962
I3
sg963
I1
sg964
I1
sg967
I2
sg3151
I1
sg2568
I1
sg970
I1
sg2278
I1
sg972
I18
sg974
I1
sg222
I1
sg975
I2
sg976
I2
sg977
I1
sg978
I3
sg979
I1
sg980
I3
sg2572
I1
sg981
I5
sg982
I1
sg983
I2
sg984
I1
sg985
I8
sg986
I3
sg987
I4
sg988
I5
sg989
I8
sg990
I1
sg991
I2
sg777
I1
sg992
I1
sg993
I1
sg994
I1
sg995
I1
sg996
I1
sg997
I1
sg998
I2
sg1373
I1
sg999
I2
sg1000
I2
sg1001
I1
sg1002
I1
sg1003
I1
sg1004
I1
sg1005
I13
sg1006
I1
sg1234
I1
sg1008
I2
sg1009
I1
sg203
I1
sg1010
I1
sg1011
I2
sg1012
I1
sg1013
I1
sg1014
I5
sg1015
I2
sg1016
I1
sg755
I1
sg1018
I5
sg1019
I1
sg1384
I2
sg1930
I1
sg1022
I4
sg1023
I1
sg1024
I1
sg1025
I2
sg1026
I2
sg1027
I1
sg1028
I1
sg3163
I1
sg1030
I1
sg1031
I10
sg1032
I1
sg1033
I1
sg1034
I1
sg1035
I1
sg1036
I1
sg1037
I1
sg1038
I2
sg1039
I3
sg3165
I1
sg1041
I3
sg3167
I1
sg1044
I2
sg1045
I2
sg1046
I10
sg1047
I2
sg1048
I1
sg1049
I2
sg1050
I1
sg1051
I1
sg1052
I3
sg1053
I1
sg1054
I29
sg1055
I1
sg1056
I1
sg1057
I3
sg2791
I1
sg1059
I1
sg1061
I1
sg1062
I4
sg1063
I1
sg764
I2
sg1065
I14
sg1066
I3
sg1067
I1
sg1068
I20
sg2848
I10
sg1697
I1
sg1504
I1
sg1072
I1
sg1073
I1
sg1074
I1
sg2871
I1
sg1076
I1
sg1077
I1
sg1078
I1
sg1991
I1
sg1080
I1
sg2783
I1
sg1081
I1
sg1082
I1
sS'1'
I10
sg1083
I2
sg1084
I1
sg1085
I2
sg1086
I1
sg1087
I1
sg1088
I1
sg1089
I1
sg1090
I1
sg1091
I4
sg438
I2
sg1093
I1
sg1094
I1
sg2630
I1
sg1096
I4
sg1097
I4
sg1098
I1
sg1099
I1
sg1100
I5
sg1101
I40
sg1102
I1
sg3072
I6
sg1104
I1
sg2587
I3
sg1106
I1
sg1107
I1
sg1108
I4
sS'q'
I2
sg1320
I1
sg1110
I70
sg1111
I3
sg325
I1
sg1112
I2
sg1113
I4
sg1114
I2
sg3152
I1
sg1116
I1
sg1117
I1
sg1118
I1
sg1119
I1
sg1121
I14
sg1620
I1
sg3190
I4
sg1123
I1
sg1124
I2
sg1125
I2
sg1126
I12
sg1127
I1
sg1128
I1
sg1129
I1
sg1130
I8
sg1131
I3
sg1132
I14
sg1133
I1
sg3257
I1
sg1135
I1
sg1136
I4
sg1137
I1
sg1138
I3
sg1139
I1
sg1140
I1
sg1246
I1
sg1141
I2
sg1142
I1
sg1143
I1
sg1144
I41
sg1145
I5
sg1147
I1
sg1148
I1
sg1149
I1
sS'3'
I11
sg1151
I1
sg1152
I1
sg1153
I1
sg1403
I1
sg1156
I1
sg1157
I1
sg1158
I2
sg1159
I44
sg1160
I26
sg1161
I2
sg1162
I1
sg1163
I1
sg1164
I2
sg1165
I12
sg1166
I1
sg184
I5
sg1167
I3
sg1169
I1
sg1170
I1
sg1171
I1
sg1172
I1
sg1173
I2
sg1174
I1
sg1175
I1
sg1176
I3
sg1177
I2
sg1178
I1
sg1179
I1
sg1180
I6
sg1181
I1
sg1182
I1
sg1183
I8
sg1184
I17
sg2596
I2
sg1187
I1
sg1188
I1
sg1189
I1
sg1190
I1
sg1191
I5
sg1192
I1
sg1193
I2
sg1194
I1
sg1195
I1
sg1196
I1
sg1197
I7
sg1198
I2
sg1199
I1
sg2683
I1
sg1201
I2
sg1202
I1
sg1204
I1
sg1205
I1
sg1206
I1
sg1207
I1
sg1208
I1
sg1209
I1
sg1210
I1
sg1211
I2
sg1212
I1
sg1213
I1
sg1214
I1
sg1215
I5
sg3198
I1
sg108
I1
sg1218
I1
sg1219
I1
sg1220
I1
sg1221
I1
sg1222
I4
sg1223
I1
sg1224
I1
sg1225
I2
sg1226
I1
sg2020
I1
sg1228
I2
sg1229
I1
sg188
I9
sg1231
I5
sg2814
I1
sg1233
I1
sg1235
I1
sg1236
I17
sg1376
I1
sg1238
I28
sg1239
I3
sg1240
I2
sg2601
I3
sg1242
I1
sg2009
I6
sg1244
I1
sg1245
I2
sg253
I1
sg1247
I53
sg1248
I2
sg1249
I1
sg1250
I2
sg2515
I1
sg1252
I4
sg1253
I3
sg1254
I3
sg1255
I3
sg296
I1
sg298
I1
sg1258
I1
sg1259
I13
sg1260
I1
sg1261
I2
sg1262
I14
sg1263
I6
sg1688
I2
sg1265
I1
sS'2'
I5
sg1266
I1
sg1267
I1
sg1268
I4
sg1269
I10
sg1270
I2
sg1271
I1
sg3061
I1
sg1272
I6
sg1273
I1
sg1274
I80
sg2237
I1
sg1276
I1
sg1277
I2
sg1278
I3
sg1280
I2
sg1281
I13
sg1282
I1
sg463
I1
sg1284
I2
sg469
I1
sg1286
I1
sg1287
I3
sg1288
I4
sg3279
I1
sg1290
I1
sg1291
I1
sg1292
I3
sg1293
I1
sS'r'
I2
sg1294
I30
sg1295
I1
sg1296
I1
sg546
I1
sg1298
I160
sg1299
I1
sg1300
I1
sg1301
I1
sg1302
I2
sg1303
I1
sg342
I1
sg1305
I5
sg1306
I1
sg1307
I3
sg1308
I1
sg1309
I21
sg604
I1
sg1311
I1
sg1312
I2
sg1275
I1
sg1314
I12
sg1315
I12
sg2806
I5
sg1317
I1
sg2608
I1
sg1319
I1
sg1321
I1
sg2188
I1
sg1323
I1
sg1324
I1
sg1325
I2
sg1326
I2
sg1327
I2
sg1328
I10
sg695
I1
sg1330
I1
sg1331
I1
sg1428
I4
sg2610
I1
sg1334
I1
sg1335
I1
sg1336
I7
sg731
I1
sg1338
I1
sg1339
I2
sg1340
I3
sg1342
I1
sg1343
I2
sg1344
I1
sg3313
I1
sg1345
I1
sg1346
I2
sg2896
I1
sg1348
I3
sg1349
I5
sg1350
I1
sg1351
I2
sg1352
I1
sg1353
I2
sg1354
I11
sg829
I2
sg3542
I1
sg1357
I2
sg1358
I1
sg1359
I1
sg1360
I3
sg1361
I7
sg1362
I2
sg1363
I5
sg1364
I3
sg1365
I1
sg1366
I1
sg1368
I2
sg1369
I1
sg1370
I1
sg867
I2
sg1372
I5
sg965
I1
sg1374
I1
sg1375
I2
sg1377
I2
sg1378
I1
sg1379
I2
sg808
I1
sg1381
I6
sg1382
I1
sg1433
I6
sg3362
I1
sg1020
I16
sg1385
I27
sg1386
I11
sg1388
I1
sg1389
I1
sg1390
I1
sg1391
I1
sg1392
I47
sg1393
I1
sg1394
I1
sg1395
I1
sg1396
I1
sg1397
I2
sg1399
I1
sg1400
I1
sg1401
I1
sg1402
I1
sg1155
I1
sg1404
I1
sg1405
I1
sg1406
I1
sg1407
I3
sg1408
I1
sg1409
I6
sg1410
I3
sg1411
I1
sg1412
I1
sg1413
I1
sg1414
I1
sg3227
I3
sg1416
I14
sg1417
I6
sg1418
I1
sg1419
I1
sg1420
I1
sg825
I49
sg1422
I1
sg1423
I3
sg1424
I2
sg1425
I1
sg1426
I1
sg1427
I1
sg1332
I1
sg1429
I1
sg1430
I1
sg1431
I1
sg1371
I1
sg1435
I1
sg2032
I1
sg1436
I8
sg1437
I1
sg1438
I2
sg3388
I1
sg1439
I3
sg1440
I1
sg1441
I2
sg1442
I1
sg1443
I1
sg1444
I1
sg1445
I1
sg1447
I1
sg1448
I2
sg1449
I1
sg1450
I2
sg1451
I1
sg1452
I1
sg1453
I1
sg1454
I2
sg1455
I1
sg1456
I1
sg1457
I16
sg1458
I1
sg1459
I2
sg1460
I1
sg1461
I1
sg1462
I1
sg1463
I8
sg665
I2
sg1465
I1
sg1466
I3
sg1547
I1
sg1467
I1
sg1468
I1
sg1469
I1
sg1575
I7
sg1471
I4
sg1472
I1
sg1473
I2
sg1474
I1
sg1475
I2
sg1476
I1
sg1477
I13
sg1478
I1
sg1479
I1
sg3238
I1
sg1480
I2
sg1481
I1
sg1482
I1
sg1483
I1
sg1484
I1
sg1485
I2
sg1486
I1
sg1487
I1
sg1488
I1
sg1489
I1
sg1490
I1
sg1491
I1
sg1492
I1
sg1493
I1
sg1494
I1
sg1495
I6
sg1496
I1
sg3191
I1
sg1497
I2
sg1498
I1
sg1499
I1
sg1500
I2
sg1501
I1
sg1503
I1
sg3345
I1
sg1506
I1
sg1817
I1
sg1510
I9
sg1825
I4
sg1512
I1
sg1513
I5
sg1514
I1
sg2890
I2
sg1516
I1
sg1517
I11
sg1518
I2
sg1519
I1
sg1520
I1
sg1521
I1
sg3016
I1
sg1522
I2
sg1523
I1
sg1524
I1
sg1525
I1
sg1526
I1
sg789
I1
sg1527
I1
sg3246
I1
sg1529
I1
sg1530
I3
sg2055
I11
sg1532
I1
sg3247
I2
sg3062
I1
sg1536
I1
sg1537
I1
sg1538
I2
sg2056
I1
sg1540
I1
sg1541
I1
sg1542
I6
sg1543
I9
sg1544
I2
sg1545
I1
sg1546
I3
sS's'
I3
sg2038
I1
sg834
I2
sg2058
I5
sg1551
I1
sg2060
I1
sg1553
I2
sg1554
I2
sg1555
I1
sg1556
I3
sg1557
I8
sg1558
I1
sg1559
I2
sg1560
I3
sg1561
I1
sg1562
I1
sg1563
I4
sg1564
I1
sg1565
I1
sg2468
I1
sg2062
I1
sg2170
I1
sg3255
I2
sg1568
I1
sg838
I3
sg1570
I1
sg2722
I1
sg839
I1
sg2064
I1
sg1573
I7
sg1574
I1
sg1470
I17
sg1576
I2
sg3466
I1
sg1578
I1
sg1579
I2
sg1580
I5
sg1581
I13
sg1582
I11
sg1583
I2
sg1584
I2
sg1585
I1
sg1586
I1
sg1587
I1
sg1588
I5
sg1589
I5
sg1590
I1
sg1591
I1
sg1592
I1
sg1593
I2
sg1594
I1
sg1595
I5
sg1596
I2
sg2087
I1
sg1597
I1
sg1598
I1
sS'4'
I7
sg1599
I1
sg1600
I1
sg1601
I6
sg1603
I9
sg1604
I1
sg1605
I5
sg1606
I1
sg1607
I1
sg1608
I7
sg2480
I1
sg1610
I1
sg1611
I5
sg2490
I2
sg2497
I1
sg1614
I1
sg2503
I1
sg1134
I1
sg2660
I1
sg1617
I1
sg2075
I3
sg1619
I2
sg54
I1
sg1621
I1
sg1622
I1
sg1623
I2
sg1624
I3
sg1625
I1
sg1626
I1
sg1627
I1
sg2662
I1
sg2462
I3
sg1629
I1
sg2663
I1
sg1630
I1
sg908
I1
sg1631
I1
sg1632
I3
sg1820
I1
sg1633
I1
sg1635
I2
sg1636
I1
sg1637
I1
sg1638
I1
sg855
I2
sg1640
I1
sg1641
I1
sg1642
I1
sg1643
I3
sg1644
I1
sg1645
I1
sg1646
I4
sg1647
I1
sg1648
I2
sg1649
I1
sg810
I3
sg1651
I1
sg1652
I104
sg1653
I1
sg1654
I6
sg1655
I1
sg1656
I1
sg1657
I17
sg1658
I138
sg1659
I1
sg1660
I7
sg1661
I1
sg1662
I1
sg1663
I3
sg1664
I2
sg1665
I1
sg1666
I1
sg1667
I1
sg1668
I1
sg1669
I1
sg1670
I20
sg1671
I9
sg1672
I1
sg1673
I1
sg1674
I2
sg1675
I1
sg1676
I1
sg1678
I1
sg1679
I1
sg1680
I1
sg1681
I1
sg1682
I1
sg1683
I1
sg1684
I1
sg2205
I1
sg1686
I1
sg1687
I40
sg3003
I1
sg1689
I1
sg1690
I61
sg1691
I1
sg1692
I1
sg1693
I28
sg1694
I10
sg1695
I1
sg1696
I4
sg3053
I1
sg1698
I2
sg1699
I2
sg1700
I2
sg1701
I6
sg1203
I1
sg3278
I1
sg1704
I1
sg1705
I1
sg1706
I2
sg1707
I1
sg1708
I1
sg1709
I1
sg1710
I1
sg1711
I1
sg1712
I1
sg1713
I3
sg1714
I1
sg1715
I1
sg1716
I1
sg1717
I1
sg1718
I6
sg1719
I84
sg1720
I1
sg3168
I2
sg1722
I13
sg1723
I2
sg1724
I1
sg1725
I1
sg1727
I1
sg1728
I7
sg1729
I1
sg2809
I1
sg1730
I1
sg1731
I1
sg1732
I1
sg1733
I3
sg1734
I1
sg1735
I2
sg3216
I1
sg1736
I1
sg1737
I6
sg1738
I1
sg1739
I1
sg1740
I3
sg3282
I1
sg3276
I1
sg1742
I1
sg1743
I3
sg1744
I12
sg1745
I1
sg2607
I65
sg1747
I1
sg1748
I33
sg1749
I49
sg1750
I17
sg1751
I11
sg2977
I1
sg1753
I1
sg1754
I1
sg1755
I1
sg1756
I13
sg1758
I2
sg1759
I1
sg1760
I1
sg1761
I2
sg1762
I2
sg1763
I1
sg2100
I1
sg3375
I7
sS'5'
I7
sg1766
I1
sg1767
I182
sg1768
I1
sg1769
I1
sg1770
I3
sg1771
I1
sg1772
I1
sg1773
I1
sg1774
I2
sg876
I2
sg3461
I1
sg1776
I1
sg1777
I1
sg1779
I1
sg2691
I3
sg1781
I1
sg1782
I1
sg1783
I1
sg1784
I1
sg1785
I2
sg1786
I33
sg3516
I1
sg1788
I1
sg1789
I1
sS'u'
I1
sg1790
I2
sg1791
I1
sg2693
I1
sg1793
I1
sg1794
I45
sg1795
I1
sg1796
I3
sg1797
I1
sg1798
I1
sg1799
I1
sg1800
I3
sg1802
I1
sg69
I1
sg1804
I2
sg1805
I2
sg2110
I1
sg1807
I4
sg1808
I1
sg1809
I1
sg1810
I1
sg3292
I1
sg1812
I1
sg1813
I3
sg2879
I1
sg1815
I1
sg1816
I1
sg1509
I3
sg1818
I1
sg1819
I191
sg2885
I1
sg1821
I3
sg1822
I1
sg1823
I1
sg1824
I1
sg1511
I1
sg1826
I1
sg1827
I22
sg1828
I1
sg1829
I9
sg1830
I15
sg1831
I1
sg1832
I2
sg1833
I3
sg1834
I2
sg1835
I2
sg297
I32
sg1837
I7
sg1838
I1
sg1515
I1
sg1840
I1
sg1841
I5
sg1842
I1
sg1844
I1
sg1845
I1
sg1507
I1
sg1847
I1
sg1848
I3
sg1849
I1
sg1850
I2
sg1851
I1
sg1852
I1
sg1853
I4
sg1854
I1
sg1855
I10
sg1856
I1
sg345
I2
sg1858
I3
sg1859
I1
sg1860
I2
sg1861
I1
sg1862
I5
sg1863
I2
sg1864
I1
sg1865
I2
sg1866
I1
sg1867
I1
sg1868
I1
sg1869
I97
sg1870
I1
sg1871
I2
sg1872
I1
sg1873
I1
sg1874
I2
sg1875
I1
sg1876
I1
sg1877
I3
sg446
I1
sg1879
I1
sg302
I1
sg1881
I1
sg954
I4
sg1882
I1
sg1883
I1
sg1884
I1
sg1885
I1
sg1886
I2
sg1887
I2
sg3378
I1
sg1888
I1
sg1889
I1
sg1890
I6
sg1609
I1
sg1891
I1
sg1892
I1
sg1893
I1
sg2065
I1
sg1894
I1
sg1895
I3
sg1896
I1
sg1897
I6
sg1898
I1
sg3387
I1
sg1900
I3
sg1901
I1
sg2561
I1
sg1902
I1
sg1903
I2
sg1904
I1
sg1905
I1
sg1906
I1
sg1907
I1
sg1908
I1
sg1909
I1
sg1910
I1
sg1911
I1
sg1912
I1
sg1913
I1
sg2872
I3
sg1914
I1
sg1915
I1
sg1917
I1
sg1918
I8
sg1919
I4
sg1920
I2
sg2102
I1
sg1922
I1
sg2131
I7
sg1924
I1
sg1925
I1
sg1926
I1
sg1927
I1
sg1928
I2
sg1929
I6
sg900
I3
sg1933
I31
sg1934
I1
sg1935
I1
sS'6'
I4
sg1936
I1
sg1937
I1
sg1938
I1
sg1939
I1
sg1940
I15
sg1941
I1
sg1942
I1
sg1943
I1
sg1944
I1
sg1945
I11
sg1946
I5
sg1947
I1
sg1949
I1
sg872
I1
sg1951
I1
sg1952
I2
sg1953
I1
sg1528
I1
sg1955
I1
sg1956
I3
sg3470
I1
sg1958
I3
sg1959
I1
sg949
I2
sg1961
I1
sg1962
I2
sg1963
I1
sg2720
I3
sg1965
I1
sg1966
I3
sg1967
I1
sg1968
I1
sg1969
I1
sg1970
I1
sg1971
I1
sg1972
I1
sg1974
I1
sg1975
I1
sg1976
I1
sg1977
I2
sg1978
I1
sg1980
I2
sg1981
I2
sg1982
I3
sg1983
I1
sg1984
I2
sg1985
I3
sg1986
I2
sg1987
I1
sg1988
I3
sg1989
I4
sg1990
I1
sg2592
I1
sg1992
I1
sg3458
I1
sg1993
I3
sg1994
I1
sg1383
I1
sg1996
I1
sg1997
I1
sg1998
I1
sg1999
I1
sg2000
I4
sg2001
I1
sg2002
I1
sg2003
I1
sg2004
I1
sg2005
I1
sg2006
I1
sg2007
I1
sg2008
I3
sg1243
I2
sg2010
I1
sg2011
I1
sg2012
I1
sS'a'
I275
sg2013
I4
sg2014
I1
sg2015
I2
sg326
I2
sg2016
I1
sg2017
I1
sg2018
I4
sg2019
I3
sg2022
I1
sg2023
I1
sg2728
I2
sg2025
I4
sg2026
I25
sg2027
I10
sg2028
I3
sg2029
I10
sg2030
I33
sg1387
I1
sg2033
I3
sg2034
I1
sg2035
I1
sg2754
I1
sg2037
I10
sg1548
I10
sg2039
I17
sg2040
I3
sg2041
I5
sg2042
I2
sg2043
I1
sg2044
I4
sg2045
I1
sg2046
I1
sg2047
I2
sg2048
I2
sg3324
I3
sg2050
I1
sg2051
I3
sg2052
I2
sg2053
I1
sg2054
I1
sg1531
I9
sg3338
I1
sg133
I2
sg2057
I1
sg1550
I1
sg2103
I1
sg1552
I2
sg2061
I1
sg2152
I1
sg2063
I1
sg1572
I1
sg2713
I1
sg2067
I1
sg2068
I2
sg1534
I1
sg2070
I2
sg2071
I1
sg2072
I2
sg2073
I1
sg2074
I1
sg1618
I1
sg2076
I13
sg2741
I1
sg2079
I1
sg2080
I2
sg927
I10
sg2083
I10
sg2743
I1
sg2086
I5
sg3209
I1
sg2088
I9
sg2951
I1
sg2090
I1
sg2091
I13
sg2092
I2
sg2093
I15
sg2094
I4
sg930
I4
sg2096
I1
sg1948
I1
sg2098
I1
sg2099
I1
sg1764
I1
sg2101
I17
sg2470
I1
sg1778
I1
sg2104
I2
sg2105
I1
sg2162
I1
sg2107
I4
sg2108
I1
sg2109
I1
sg2748
I1
sg2112
I1
sg215
I1
sg2113
I1
sg2114
I2
sg2115
I4
sg2116
I1
sg1995
I1
sg2118
I1
sg2119
I1
sg2120
I2
sg3333
I1
sg2122
I2
sg2123
I2
sg2124
I1
sg2125
I4
sg2126
I1
sg2127
I1
sg2128
I1
sg2129
I1
sg2130
I1
sg1923
I8
sg2132
I2
sg2133
I1
sg2167
I3
sg2136
I1
sg2137
I1
sg2138
I1
sg2139
I2
sg2140
I9
sg2141
I1
sg2142
I1
sS'w'
I1
sg3344
I1
sg2171
I2
sg2145
I1
sg2146
I1
sg2147
I1
sg171
I2
sg2148
I1
sg2149
I1
sg2150
I1
sg2151
I7
sg2716
I1
sg2153
I1
sg2154
I3
sg2155
I1
sg2156
I1
sg2157
I1
sg2158
I4
sg2159
I1
sg2160
I1
sg2161
I2
sg2106
I1
sg2751
I1
sg2164
I2
sg2165
I3
sg2166
I2
sg768
I1
sg2168
I1
sg2169
I1
sg2143
I1
sg2144
I1
sg2172
I4
sg2173
I2
sg2174
I2
sg2175
I2
sg2176
I3
sg3038
I1
sg2178
I2
sg2232
I1
sg2179
I4
sg2180
I2
sg2181
I1
sg2182
I2
sg2183
I2
sg2184
I1
sg2185
I1
sg2186
I1
sg2187
I1
sg2189
I2
sg2190
I1
sg2191
I4
sg2192
I1
sg2270
I6
sg2194
I1
sg2196
I1
sg2286
I9
sS'b'
I1
sg2199
I1
sg2200
I1
sg2201
I1
sg2327
I1
sS'i'
I188
sg2204
I1
sg3166
I1
sg2206
I2
sg2207
I1
sg2208
I1
sg2209
I1
sg2066
I1
sg2211
I1
sg2212
I2
sg2213
I3
sg2214
I1
sg2215
I1
sg2216
I1
sg2217
I1
sg2218
I1
sg2219
I1
sg2220
I1
sg2221
I1
sg2222
I11
sg644
I1
sg2223
I2
sg2224
I2
sg2225
I2
sg2226
I1
sg2227
I1
sg2228
I1
sg2229
I1
sg2230
I1
sg2557
I1
sg2288
I1
sg2233
I1
sg2234
I1
sg2235
I9
sg2236
I1
sg973
I1
sg2238
I2
sg2239
I8
sg2240
I1
sg2241
I1
sg2242
I1
sg2243
I1
sg2244
I1
sg2246
I1
sg2247
I1
sg2248
I1
sg2626
I1
sg3354
I1
sg2251
I2
sg2252
I4
sg2253
I1
sg2254
I1
sg2255
I1
sg2256
I1
sg2257
I1
sg2258
I1
sg2259
I1
sg2260
I1
sg2261
I1
sg2262
I2
sg2263
I1
sg2264
I1
sg2265
I1
sg2266
I3
sg2267
I11
sg2268
I1
sg3134
I1
sg2269
I2
sg2193
I1
sg2272
I1
sg2273
I1
sg2721
I1
sg2275
I4
sg436
I2
sg2277
I1
sS'8'
I1
sg2279
I1
sg2280
I1
sg2281
I69
sg2282
I1
sg2284
I1
sg2901
I1
sg2197
I2
sg2287
I1
sg1502
I1
sg2289
I1
sg2290
I1
sg2923
I1
sg2291
I2
sg2292
I1
sg2293
I1
sg2294
I4
sg2295
I41
sg2296
I1
sg2297
I1
sg2298
I1
sg2299
I2
sg2994
I1
sg3316
I2
sg2301
I1
sg2302
I3
sg2303
I2
sS'x'
I2
sg2304
I2
sg2305
I1
sg2306
I3
sg2307
I1
sg2308
I1
sg2309
I3
sg2310
I1
sg2311
I1
sg2312
I1
sg2313
I1
sg2316
I1
sg2317
I14
sg2318
I1
sg2319
I22
sg2320
I71
sg2321
I1
sg2322
I1
sg2323
I2
sg2324
I1
sg2325
I2
sg2326
I1
sg2777
I1
sg826
I1
sg2328
I1
sg2203
I1
sg2330
I2
sg2331
I2
sg2778
I2
sg2333
I6
sg2334
I1
sg2335
I1
sg2336
I2
sg2337
I6
sg2339
I2
sg2340
I1
sg2341
I1
sg2342
I2
sg2343
I1
sg2344
I1
sg2345
I4
sg2346
I1
sg2347
I1
sg2348
I3
sg2349
I2
sg3346
I1
sg2781
I1
sg2351
I1
sg2352
I1
sg2506
I1
sg2353
I1
sg2354
I7
sS'c'
I1
sg379
I1
sg2356
I10
sg2358
I6
sg2359
I1
sg2360
I1
sg2361
I1
sg3319
I1
sg2363
I1
sg2534
I1
sg2365
I1
sg2366
I1
sg2367
I2
sg2368
I5
sg2369
I3
sg3127
I1
sg3376
I4
sg2372
I2
sg2373
I2
sg2374
I4
sg2375
I3
sg2376
I1
sg2377
I1
sg2378
I2
sg2379
I1
sg2380
I2
sg2381
I1
sg2382
I1
sg2383
I1
sg2384
I1
sg2385
I1
sg2386
I2
sg2387
I2
sg3413
I1
sg2388
I1
sg2389
I1
sg2390
I2
sg2391
I1
sg2392
I1
sg2393
I1
sg2394
I3
sg3489
I1
sg2396
I1
sg2397
I1
sg2398
I1
sg3515
I3
sg2400
I1
sg2401
I2
sg2402
I1
sg2403
I3
sg3382
I1
sg2405
I4
sg2406
I7
sg2407
I31
sg2408
I1
sg2409
I1
sg2410
I4
sg2411
I1
sg2412
I1
sg2413
I7
sg2415
I1
sg149
I1
sg27
I1
sg2418
I1
sg2419
I1
sg2420
I14
sg2421
I3
sg2422
I4
sg2423
I1
sg2424
I1
sg2425
I11
sg2426
I1
sg2427
I1
sg383
I1
sg619
I1
sg2430
I2
sg3291
I1
sg2431
I1
sg2432
I1
sg2433
I1
sg2435
I4
sg2436
I1
sg2437
I1
sg2438
I1
sg2439
I3
sg2440
I1
sg2441
I1
sg2442
I2
sg2443
I6
sg2444
I3
sg2445
I2
sg2446
I2
sg2447
I1
sS'9'
I3
sg2448
I1
sg2449
I1
sg2450
I1
sg2451
I1
sg2452
I1
sg2453
I7
sg2454
I1
sg2455
I1
sg2456
I1
sg2457
I1
sg3391
I1
sg2459
I1
sg2460
I5
sg2461
I2
sg2314
I1
sg2463
I1
sg2464
I1
sg3485
I1
sg2465
I1
sg2466
I2
sg2467
I1
sg3018
I1
sg3217
I1
sg2469
I1
sg1042
I1
sg2471
I1
sg386
I1
sg2473
I4
sg3518
I1
sg2475
I3
sg407
I1
sg2477
I1
sS'y'
I2
sg2478
I1
sg2479
I3
sg2481
I2
sg2482
I1
sg623
I4
sg2483
I1
sg2484
I1
sg2485
I2
sg2487
I1
sg1216
I1
sg3030
I1
sg2488
I1
sg2489
I1
sg1612
I4
sg2491
I1
sg2492
I1
sg2493
I2
sg2494
I1
sg2495
I1
sg2496
I1
sg1613
I7
sg2498
I1
sg2499
I1
sg2500
I1
sg2501
I1
sg2502
I4
sg1615
I2
sg2504
I1
sg2910
I1
sg2505
I1
sg45
I1
sg2507
I5
sg2508
I1
sg2509
I1
sg2510
I1
sg2511
I1
sg2512
I7
sg2513
I11
sg2514
I1
sg2516
I2
sg2517
I6
sg606
I1
sg2519
I1
sg2520
I3
sg2521
I1
sg2522
I1
sS'd'
I4
sg2523
I1
sg2524
I1
sg2525
I1
sg2526
I1
sg2527
I1
sg2529
I1
sg2532
I1
sg2533
I1
sg1322
I10
sg2536
I1
sg2537
I1
sg2538
I1
sg2539
I17
sg2540
I19
sg2541
I1
sg2542
I1
sg2543
I1
sg2544
I1
sg2545
I2
sg2546
I1
sg2547
I3
sg2548
I1
sg2549
I1
sg2550
I1
sg2535
I2
sg2551
I1
sg2552
I1
sg2553
I1
sg2554
I2
sg2555
I1
sg2556
I1
sg910
I1
sg2558
I1
sg2559
I1
sg2560
I1
sg2245
I1
sg2562
I2
sg2563
I34
sg2564
I1
sg2021
I1
sg3371
I1
sg2567
I1
sg969
I1
sg163
I3
sg2570
I3
sg2571
I1
sg1092
I1
sg2573
I1
sg2574
I1
sg2575
I1
sg2576
I23
sg2577
I1
sg2578
I1
sg2579
I1
sg2580
I9
sg2581
I1
sg2582
I1
sg2583
I1
sg2584
I1
sg3445
I1
sg2586
I1
sg3064
I1
sg2588
I3
sg2589
I1
sg2590
I3
sg2591
I1
sg291
I1
sg3460
I2
sg2594
I1
sg3150
I1
sg2595
I1
sg1185
I1
sg1021
I1
sg2597
I1
sg2598
I1
sg2599
I1
sg2600
I1
sg1628
I1
sg1241
I1
sg2602
I7
sg2636
I2
sg2603
I3
sg2198
I2
sg2605
I1
sg2606
I2
sg3493
I1
sg1318
I1
sg2609
I6
sg1333
I1
sg2611
I1
sg2612
I1
sg2613
I1
sg2614
I1
sg2615
I2
sg2616
I1
sg2617
I1
sg2618
I3
sg2619
I3
sg2416
I1
sg2620
I1
sg2621
I2
sg3329
I1
sg2622
I1
sg1356
I1
sg2623
I3
sg2624
I9
sg2625
I1
sg2249
I1
sg2627
I1
sg2628
I1
sg2629
I2
sg1446
I1
sg3424
I1
sS'z'
I1
sg2633
I4
sg2634
I2
sS'v'
I1
sg462
I1
sg2637
I1
sg2638
I1
sg3450
I1
sg2640
I1
sg2641
I1
sg2642
I1
sg2643
I1
sg2644
I2
sg2645
I1
sg2646
I1
sg2647
I1
sg2648
I1
sg2649
I1
sg2650
I1
sg2651
I1
sg2652
I2
sg2653
I1
sg2654
I1
sg2655
I1
sg434
I2
sg2657
I1
sg2658
I2
sg2659
I1
sg1616
I1
sg2661
I7
sg3230
I1
sg1685
I1
sg2664
I1
sg2665
I1
sg2666
I2
sg2991
I1
sg2667
I1
sg2668
I1
sg2669
I1
sg2670
I2
sg2671
I1
sg2672
I1
sg2673
I2
sg2674
I1
sg2675
I3
sg444
I1
sg2677
I1
sg2678
I4
sg2679
I1
sg2680
I2
sg2681
I2
sg2682
I1
sg2870
I1
sg2685
I1
sg2686
I7
sg2687
I3
sg2688
I1
sg2689
I1
sg2690
I2
sg101
I1
sg2692
I14
sg1792
I12
sg2694
I2
sg2695
I1
sg2696
I1
sg2697
I1
sg2698
I2
sg1843
I1
sg2700
I1
sg2701
I1
sg2702
I3
sg2703
I22
sg2704
I1
sg2705
I3
sg2852
I3
sg1954
I1
sg2708
I1
sg2709
I1
sg2710
I9
sg2711
I2
sg2712
I1
sg1070
I2
sg2715
I1
sg2717
I2
sg2718
I1
sg2719
I2
sg1964
I1
sg1973
I1
sg1979
I1
sg2723
I3
sg2724
I1
sg2725
I2
sg2726
I1
sg2024
I2
sg2730
I2
sg3185
I1
sg2732
I4
sg2733
I1
sg2734
I1
sg2210
I1
sg2736
I3
sg2737
I1
sg2975
I1
sg2738
I1
sg2739
I1
sg2740
I1
sg2078
I1
sg2742
I1
sg2085
I1
sg2744
I2
sg2745
I1
sg2746
I1
sg2747
I7
sg2111
I2
sg2749
I1
sg2750
I1
sg2163
I1
sg2752
I1
sg2753
I1
sg3443
I1
sg2755
I2
sg3444
I1
sg2757
I1
sg1801
I1
sg2759
I4
sg2760
I1
sg1043
I1
sg2761
I2
sg2762
I1
sg2763
I1
sg2764
I1
sg2765
I2
sg2766
I1
sg2767
I1
sg2768
I2
sg2769
I1
sg2770
I3
sg2771
I2
sg461
I1
sg2865
I1
sg2772
I1
sg2773
I1
sg2774
I2
sg3153
I1
sg2776
I3
sg566
I1
sg2332
I1
sg2779
I1
sg2780
I1
sg2350
I1
sg2782
I1
sg11
I1
sg2081
I1
sg2785
I10
sg879
I3
sg2787
I1
sg2788
I1
sg2789
I1
sg2790
I10
sg2792
I1
sg2793
I1
sg2794
I1
sg2795
I1
sg2796
I1
sg2797
I3
sg2798
I1
sg2799
I2
sg2800
I2
sg2801
I1
sg2802
I6
sg2803
I2
sg2805
I5
sg2807
I2
sg2808
I1
sg2077
I1
sg2810
I5
sg2811
I1
sg2812
I1
sg2813
I1
sg2815
I6
sg2816
I1
sg2817
I3
sg2818
I1
sg2819
I1
sg2820
I1
sg2821
I6
sg2822
I11
sg2823
I38
sg2874
I1
sg2059
I2
sg2274
I1
sg2825
I1
sg2826
I1
sg2875
I2
sg2828
I1
sg2829
I15
sg2830
I11
sg2831
I2
sg2832
I1
sg2833
I1
sg2834
I1
sg3175
I2
sg2836
I1
sg2837
I1
sg2838
I1
sg2839
I1
sg460
I3
sg2841
I1
sg2842
I1
sg2843
I8
sg2844
I1
sg2845
I1
sg2846
I56
sg2847
I1
sg1069
I3
sg3172
I1
sg2684
I1
sg2850
I2
sg2851
I1
sg915
I1
sg2699
I2
sg3457
I1
sg2854
I14
sg2855
I1
sg2878
I4
sg2857
I1
sg2858
I4
sg2731
I1
sg2860
I1
sg1071
I6
sg2862
I55
sg2863
I1
sg3063
I1
sg2866
I1
sg2867
I2
sg2868
I2
sg2869
I1
sg1075
I3
sg2804
I2
sg2873
I1
sg177
I1
sg2827
I1
sg2876
I1
sg2877
I1
sg2856
I2
sg2947
I1
sg2880
I14
sg2881
I1
sg2882
I1
sg2883
I1
sg2884
I1
sg2899
I1
sg2886
I1
sg2887
I1
sg2888
I1
sg2889
I1
sg454
I2
sg2891
I1
sg2892
I2
sg2893
I1
sg2894
I1
sg2895
I1
sg2897
I4
sg2898
I1
sg2900
I2
sg2976
I1
sg2902
I1
sg2903
I1
sg2905
I3
sg471
I3
sg2907
I1
sg2908
I1
sg2909
I1
sg950
I1
sg2911
I1
sg2912
I1
sg3041
I1
sg2914
I1
sg2915
I6
sg2917
I1
sg2918
I6
sg2919
I3
sg2920
I1
sg2921
I1
sg2922
I2
sg2924
I2
sg2925
I1
sg2926
I1
sg2927
I1
sg2928
I1
sg2929
I1
sg2930
I2
sg2931
I1
sg2932
I2
sg2933
I1
sg2934
I1
sg2935
I5
sg2936
I11
sg2937
I1
sg2938
I1
sg2939
I1
sg2940
I2
sg2941
I4
sg2942
I2
sg2943
I1
sg2944
I1
sg2945
I1
sg2946
I1
sg2948
I1
sg2949
I1
sg2950
I1
sg2952
I2
sg2953
I1
sg2954
I1
sg2955
I1
sg2956
I1
sg2957
I12
sg2958
I1
sg2959
I1
sg2961
I6
sg2962
I4
sg2963
I1
sg2964
I1
sg3222
I1
sg2965
I2
sg2966
I4
sg2967
I1
sg2968
I47
sg2134
I1
sg2970
I2
sg2971
I1
sg2972
I1
sg2973
I2
sg2974
I1
sg2729
I1
sg2979
I1
sg2980
I1
sg2981
I2
sg2982
I1
sg2983
I2
sg2984
I1
sg2985
I10
sg2986
I1
sg2569
I1
sg2987
I1
sg2988
I1
sg2989
I1
sg2990
I1
sg3527
I1
sg2992
I13
sg2993
I2
sg2995
I2
sg2996
I1
sg2997
I62
sg2998
I3
sg2999
I1
sS"'"
I11
sg3000
I3
sg3001
I1
sg3002
I1
sg3004
I3
sg58
I11
sg3006
I1
sg3007
I1
sg3008
I2
sg3009
I2
sg3010
I1
sg3011
I1
sg3012
I1
sg3013
I1
sg3014
I1
sg3015
I1
sg2631
I1
sg3017
I1
sg1464
I1
sg3019
I1
sg3020
I1
sg3021
I1
sg3022
I1
sg155
I1
sg3024
I1
sg3025
I1
sg3026
I16
sg3027
I2
sg3028
I4
sg1237
I1
sg3029
I2
sg956
I3
sg1095
I3
sg3031
I1
sg2329
I1
sg3033
I3
sg3034
I1
sg496
I1
sg3336
I2
sg246
I2
sg3036
I1
sg3037
I2
sg3039
I4
sg3040
I1
sg2913
I2
sg278
I3
sg3043
I1
sg3044
I1
sg3045
I1
sg3046
I7
sg3047
I2
sg3048
I1
sg3049
I2
sg3050
I2
sg3051
I1
sg1421
I2
sg3054
I2
sg3055
I21
sg3056
I3
sg3463
I1
sg3057
I2
sg3058
I1
sg3059
I1
sg3060
I1
sg1146
I1
sg392
I1
sg416
I2
sg3066
I2
sg3067
I2
sg3068
I1
sg3069
I1
sg3070
I1
sg3071
I2
sg1103
I3
sg3073
I1
sg3074
I1
sg3075
I1
sg3076
I1
sg3077
I2
sg417
I1
sg3079
I5
sg3080
I2
sg3081
I2
sg1105
I4
sg3082
I2
sg3083
I1
sg3084
I2
sg3085
I1
sg3086
I1
sg3087
I1
sg3088
I1
sg3089
I5
sg3256
I1
sg3090
I1
sg3091
I1
sg3092
I2
sg3093
I1
sg3094
I4
sg3095
I1
sg3096
I2
sg3097
I72
sg3098
I1
sg3099
I11
sg3100
I7
sg3101
I4
sg3102
I1
sg3103
I2
sg3104
I3
sg3105
I1
sg3106
I3
sg3107
I1
sg3108
I1
sg3109
I12
sg3110
I1
sg3111
I2
sg3112
I2
sg3113
I1
sg3114
I1
sg3115
I1
sg3116
I2
sg1899
I1
sg3118
I1
sg3119
I23
sg3120
I2
sg3121
I1
sg3122
I2
sg3123
I1
sg3124
I54
sg3125
I1
sg3126
I1
sg1154
I1
sg3128
I3
sg3129
I1
sg122
I3
sg3130
I11
sg837
I1
sg3132
I1
sg3133
I1
sg2338
I1
sg3135
I1
sg3136
I2
sg3137
I1
sg3138
I1
sg3139
I1
sg3140
I1
sg3141
I3
sg3142
I2
sg3143
I3
sg3144
I1
sg3145
I1
sg3146
I1
sg3147
I2
sg3148
I3
sg3149
I2
sg1932
I1
sg968
I1
sg1115
I2
sg3154
I2
sg3155
I1
sg3156
I1
sg3157
I1
sg3158
I1
sg3159
I2
sg3161
I8
sg3162
I1
sg1029
I1
sg1040
I1
sg2706
I1
sg1757
I1
sg3169
I6
sg3170
I5
sg3171
I1
sg263
I1
sg3173
I1
sg3174
I1
sg3341
I2
sg3176
I1
sg3177
I1
sg3178
I1
sg3179
I2
sg3180
I3
sg3181
I1
sg3182
I3
sg3183
I5
sg3184
I4
sg2835
I1
sg3186
I1
sg3187
I1
sg3188
I1
sg3482
I1
sg3189
I2
sg1122
I3
sg3164
I1
sg3192
I4
sg3193
I1
sg3194
I2
sg3195
I1
sg3196
I50
sg3510
I4
sg2315
I1
sg3199
I1
sg3200
I2
sg3201
I1
sg3202
I1
sg3203
I1
sg3204
I2
sg3205
I3
sg3206
I2
sg3207
I1
sg3208
I1
sg3210
I1
sg3211
I2
sg1341
I1
sg2531
I1
sg3214
I1
sg3215
I1
sg1060
I1
sg248
I1
sg3218
I1
sg3219
I3
sg3220
I1
sg3221
I1
sg1398
I1
sg3223
I1
sg3224
I2
sg3225
I2
sg3226
I1
sg1415
I8
sg3228
I1
sg1539
I1
sg3229
I1
sg1432
I1
sg3231
I1
sg3232
I1
sg3233
I1
sg3234
I4
sg3235
I1
sg3237
I1
sg190
I4
sg3239
I1
sg3240
I1
sg3241
I2
sg3242
I3
sg3243
I1
sg3244
I12
sg3245
I2
sg3160
I1
sg1533
I1
sg3248
I1
sg3052
I1
sg3250
I1
sg3251
I2
sg3252
I1
sg3253
I2
sg3254
I1
sg1567
I1
sg237
I1
sg2960
I1
sg3258
I1
sg3259
I2
sg3260
I5
sg3261
I1
sg3262
I5
sg3263
I1
sg3264
I2
sg534
I7
sg3266
I2
sg3267
I5
sg3268
I2
sg3269
I1
sg3270
I1
sg3271
I41
sg3272
I1
sg3274
I1
sg3275
I4
sg1577
I1
sg3277
I1
sg1703
I1
sg3280
I1
sg3281
I1
sg487
I1
sg3283
I1
sg2357
I1
sg3285
I1
sg3286
I1
sg3287
I2
sg3288
I1
sg3289
I1
sg3290
I3
sg2530
I1
sg1746
I3
sg3293
I1
sg3294
I1
sg3295
I1
sg3296
I1
sg3297
I1
sg540
I2
sg3298
I1
sg3299
I1
sg3300
I1
sg3301
I16
sg3302
I2
sg3303
I1
sg3304
I3
sg3305
I1
sg3306
I1
sg3307
I3
sg3308
I1
sg3309
I1
sg3310
I1
sg3311
I1
sg3312
I1
sg36
I1
sg3314
I1
sg3315
I1
sg1752
I3
sg3317
I2
sg3318
I2
sg1702
I1
sg3320
I2
sg1150
I1
sg3321
I1
sg3322
I7
sg3323
I1
sg2049
I2
sg3325
I3
sg3326
I1
sg3327
I1
sg3328
I17
sg2084
I1
sg2097
I2
sg3331
I1
sg3332
I8
sg2121
I1
sg3334
I1
sg3335
I2
sg2031
I1
sg3337
I1
sg1602
I1
sg3339
I2
sg3340
I1
sg3342
I1
sg1200
I5
sg3343
I19
sg2195
I1
sg2414
I1
sg2271
I1
sg3347
I1
sg2735
I1
sg3348
I1
sg3349
I22
sg3350
I2
sg3351
I1
sg3352
I14
sg3353
I2
sg2250
I1
sg3355
I1
sg3356
I1
sg3357
I1
sg3358
I1
sg3359
I1
sg3360
I3
sg2486
I1
sg1931
I1
sg3363
I1
sg3364
I1
sg3365
I1
sg2775
I3
sg3366
I1
sg3367
I1
sg3368
I1
sg3369
I1
sg3370
I1
sg3372
I1
sg3373
I1
sg3374
I1
sg1765
I3
sg2635
I2
sg3377
I2
sg853
I1
sg3379
I2
sg3380
I1
sg3381
I2
sg2404
I1
sg3383
I1
sg3384
I1
sg3386
I1
sg2434
I1
sg1814
I1
sg3389
I3
sg3390
I3
sg2458
I1
sg3392
I1
sg3393
I1
sg3394
I4
sg3395
I43
sg3396
I2
sg3397
I2
sg3398
I2
sg3399
I1
sg3400
I1
sg3401
I2
sg3403
I1
sg3404
I33
sg3405
I6
sg3406
I1
sg3407
I1
sg3408
I2
sg3409
I1
sg3410
I1
sg3411
I1
sg3412
I2
sg3547
I1
sg3414
I2
sS'e'
I1
sg3415
I1
sg3416
I1
sg3417
I1
sg3418
I33
sg3419
I4
sg3420
I1
sg3421
I1
sg3422
I6
sg3423
I1
sg2632
I1
sg3425
I1
sg3426
I3
sg3427
I11
sg3428
I1
sg3429
I1
sg3430
I1
sg3431
I1
sg3432
I1
sg3433
I3
sg3434
I2
sg3435
I1
sg3236
I1
sg3437
I16
sg1007
I2
sg560
I2
sS'?'
I263
sg3440
I1
sg3441
I1
sg3442
I1
sg3438
I1
sg2756
I1
sg160
I1
sg3446
I1
sg3447
I1
sg3448
I1
sg3449
I1
sg2036
I2
sg3451
I2
sg3452
I1
sg3453
I1
sg3454
I1
sg3455
I1
sg3456
I3
sg2853
I1
sg3213
I32
sg3459
I9
sg343
I1
sg3462
I2
sg2528
I1
sg3273
I1
sg3465
I1
sg2916
I1
sg3467
I3
sg3468
I1
sg3469
I6
sg3471
I5
sg3472
I2
sg3473
I1
sg3474
I2
sg3475
I2
sg3476
I1
sg3477
I6
sg3478
I1
sg3479
I1
sg3480
I1
sg3481
I1
sg1367
I1
sg3483
I5
sg3484
I1
sg1839
I1
sg3486
I2
sg3487
I4
sg3488
I1
sg2395
I2
sg3490
I1
sg3491
I5
sg3492
I1
sg2727
I1
sg3494
I18
sg3495
I4
sg3496
I1
sg3497
I1
sg3498
I69
sg3499
I1
sg3500
I2
sg3501
I1
sg3502
I1
sg3503
I2
sg3504
I5
sg3505
I92
sg3506
I4
sg3507
I7
sg3508
I2
sg3509
I2
sg3197
I2
sg3511
I2
sS'j'
I1
sg3512
I1
sg3513
I2
sg3514
I1
sg2399
I4
sg1916
I1
sg3517
I1
sg3519
I2
sg3520
I1
sg3521
I8
sg3522
I1
sg3523
I1
sg3524
I1
sg3525
I1
sg3526
I1
sg1120
I1
sg3528
I2
sg3529
I2
sg1677
I1
sg3531
I1
sg3532
I1
sg3533
I1
sg3534
I2
sg1726
I1
sg3536
I1
sg3537
I1
sg3538
I1
sg3539
I1
sg3540
I2
sg3541
I22
sg3402
I1
sg3543
I1
sg3544
I1
sg3545
I1
sg3546
I5
sg3548
I1
sg3549
I3
sg3550
I1
sg3551
I1
sg3552
I5
sg3553
I1
sg3554
I1
sg3555
I2
sg3556
I2
sg2566
I1
sg3557
I1
sg3558
I1
sg3559
I1
sg3560
I1
sg3561
I1
sg3562
I1
sg3563
I1
sg3564
I1
ssS'index_docs'
p3573
(dp3574
I1
I347
sI2
I284
sI3
I183
sI4
I275
sI5
I160
sI6
I191
sI7
I263
sI8
I188
sI9
I182
sI10
I92
sI11
I138
sI12
I123
sI13
I113
sI14
I122
sI15
I69
sI16
I107
sI17
I85
sI18
I104
sI19
I91
sI20
I80
sI21
I97
sI22
I84
sI23
I61
sI24
I50
sI25
I71
sI26
I67
sI27
I86
sI28
I70
sI29
I69
sI30
I62
sI31
I40
sI32
I62
sI33
I42
sI34
I42
sI35
I55
sI36
I72
sI37
I65
sI38
I56
sI39
I49
sI40
I60
sI41
I53
sI42
I59
sI43
I49
sI44
I41
sI45
I56
sI46
I62
sI47
I33
sI48
I47
sI49
I54
sI50
I47
sI51
I40
sI52
I41
sI53
I47
sI54
I44
sI55
I33
sI56
I38
sI57
I45
sI58
I41
sI59
I43
sI60
I11
sI61
I29
sI62
I32
sI63
I34
sI64
I34
sI65
I40
sI66
I33
sI67
I38
sI68
I29
sI69
I30
sI70
I31
sI71
I33
sI72
I27
sI73
I28
sI74
I25
sI75
I29
sI76
I32
sI77
I33
sI78
I29
sI79
I31
sI80
I28
sI81
I27
sI82
I19
sI83
I29
sI84
I31
sI85
I22
sI86
I26
sI87
I25
sI88
I24
sI89
I23
sI90
I25
sI91
I23
sI92
I22
sI93
I22
sI94
I13
sI95
I22
sI96
I20
sI97
I19
sI98
I21
sI99
I22
sI100
I23
sI101
I21
sI102
I17
sI103
I23
sI104
I20
sI105
I21
sI106
I19
sI107
I14
sI108
I18
sI109
I9
sI110
I20
sI111
I21
sI112
I8
sI113
I17
sI114
I13
sI115
I16
sI116
I16
sI117
I17
sI118
I20
sI119
I18
sI120
I16
sI121
I19
sI122
I16
sI123
I8
sI124
I2
sI125
I13
sI126
I17
sI127
I14
sI128
I16
sI129
I17
sI130
I16
sI131
I14
sI132
I12
sI133
I18
sI134
I17
sI135
I17
sI136
I12
sI137
I5
sI138
I14
sI139
I17
sI140
I14
sI141
I14
sI142
I14
sI143
I12
sI144
I17
sI145
I17
sI146
I15
sI147
I17
sI148
I6
sI149
I15
sI150
I14
sI151
I18
sI152
I13
sI153
I11
sI154
I14
sI155
I11
sI156
I13
sI157
I14
sI158
I11
sI159
I13
sI160
I13
sI161
I8
sI162
I10
sI163
I12
sI164
I16
sI165
I14
sI166
I11
sI167
I15
sI168
I14
sI169
I14
sI170
I16
sI171
I14
sI172
I14
sI173
I14
sI174
I11
sI175
I9
sI176
I13
sI177
I14
sI178
I10
sI179
I11
sI180
I9
sI181
I9
sI182
I13
sI183
I15
sI184
I14
sI185
I11
sI186
I12
sI187
I11
sI188
I11
sI189
I8
sI190
I14
sI191
I10
sI192
I3
sI193
I10
sI194
I12
sI195
I14
sI196
I13
sI197
I12
sI198
I11
sI199
I10
sI200
I1
sI201
I6
sI202
I13
sI203
I5
sI204
I10
sI205
I11
sI206
I13
sI207
I13
sI208
I7
sI209
I10
sI210
I13
sI211
I9
sI212
I11
sI213
I9
sI214
I11
sI215
I6
sI216
I5
sI217
I12
sI218
I9
sI219
I8
sI220
I12
sI221
I12
sI222
I11
sI223
I11
sI224
I10
sI225
I12
sI226
I10
sI227
I10
sI228
I10
sI229
I10
sI230
I11
sI231
I4
sI232
I11
sI233
I7
sI234
I12
sI235
I9
sI236
I10
sI237
I8
sI238
I10
sI239
I5
sI240
I7
sI241
I9
sI242
I8
sI243
I7
sI244
I11
sI245
I11
sI246
I3
sI247
I9
sI248
I8
sI249
I11
sI250
I10
sI251
I2
sI252
I10
sI253
I7
sI254
I9
sI255
I10
sI256
I11
sI257
I11
sI258
I11
sI259
I11
sI260
I8
sI261
I8
sI262
I10
sI263
I7
sI264
I7
sI265
I1
sI266
I4
sI267
I7
sI268
I10
sI269
I8
sI270
I5
sI271
I10
sI272
I10
sI273
I10
sI274
I7
sI275
I4
sI276
I2
sI277
I5
sI278
I9
sI279
I3
sI280
I4
sI281
I9
sI282
I9
sI283
I8
sI284
I8
sI285
I6
sI286
I9
sI287
I7
sI288
I2
sI289
I8
sI290
I9
sI291
I5
sI292
I6
sI293
I8
sI294
I8
sI295
I1
sI296
I9
sI297
I9
sI298
I7
sI299
I9
sI300
I8
sI301
I9
sI302
I9
sI303
I8
sI304
I1
sI305
I7
sI306
I8
sI307
I7
sI308
I7
sI309
I7
sI310
I5
sI311
I8
sI312
I8
sI313
I6
sI314
I7
sI315
I8
sI316
I8
sI317
I2
sI318
I8
sI319
I6
sI320
I7
sI321
I7
sI322
I6
sI323
I7
sI324
I6
sI325
I8
sI326
I3
sI327
I7
sI328
I7
sI329
I7
sI330
I6
sI331
I6
sI332
I7
sI333
I7
sI334
I7
sI335
I7
sI336
I6
sI337
I8
sI338
I6
sI339
I7
sI340
I2
sI341
I5
sI342
I7
sI343
I7
sI344
I6
sI345
I7
sI346
I7
sI347
I6
sI348
I3
sI349
I1
sI350
I5
sI351
I6
sI352
I5
sI353
I4
sI354
I6
sI355
I2
sI356
I5
sI357
I7
sI358
I6
sI359
I2
sI360
I5
sI361
I6
sI362
I7
sI363
I5
sI364
I7
sI365
I7
sI366
I7
sI367
I6
sI368
I3
sI369
I4
sI370
I6
sI371
I3
sI372
I4
sI373
I7
sI374
I4
sI375
I3
sI376
I4
sI377
I7
sI378
I5
sI379
I7
sI380
I3
sI381
I4
sI382
I7
sI383
I3
sI384
I7
sI385
I4
sI386
I5
sI387
I7
sI388
I5
sI389
I7
sI390
I6
sI391
I6
sI392
I6
sI393
I4
sI394
I1
sI395
I3
sI396
I6
sI397
I3
sI398
I4
sI399
I2
sI400
I3
sI401
I4
sI402
I5
sI403
I6
sI404
I6
sI405
I5
sI406
I4
sI407
I6
sI408
I3
sI409
I5
sI410
I6
sI411
I2
sI412
I6
sI413
I5
sI414
I5
sI415
I6
sI416
I6
sI417
I2
sI418
I1
sI419
I6
sI420
I5
sI421
I5
sI422
I6
sI423
I5
sI424
I3
sI425
I6
sI426
I3
sI427
I6
sI428
I6
sI429
I6
sI430
I1
sI431
I5
sI432
I6
sI433
I2
sI434
I4
sI435
I1
sI436
I6
sI437
I4
sI438
I6
sI439
I6
sI440
I6
sI441
I2
sI442
I6
sI443
I2
sI444
I6
sI445
I6
sI446
I6
sI447
I6
sI448
I3
sI449
I3
sI450
I6
sI451
I5
sI452
I4
sI453
I6
sI454
I2
sI455
I6
sI456
I5
sI457
I2
sI458
I3
sI459
I4
sI460
I2
sI461
I1
sI462
I2
sI463
I5
sI464
I3
sI465
I5
sI466
I2
sI467
I5
sI468
I5
sI469
I5
sI470
I4
sI471
I4
sI472
I4
sI473
I2
sI474
I1
sI475
I5
sI476
I5
sI477
I5
sI478
I4
sI479
I4
sI480
I1
sI481
I2
sI482
I4
sI483
I5
sI484
I5
sI485
I1
sI486
I1
sI487
I4
sI488
I4
sI489
I3
sI490
I5
sI491
I5
sI492
I2
sI493
I4
sI494
I3
sI495
I1
sI496
I5
sI497
I5
sI498
I3
sI499
I5
sI500
I5
sI501
I2
sI502
I4
sI503
I5
sI504
I3
sI505
I5
sI506
I5
sI507
I5
sI508
I3
sI509
I3
sI510
I3
sI511
I3
sI512
I5
sI513
I5
sI514
I3
sI515
I3
sI516
I5
sI517
I4
sI518
I5
sI519
I4
sI520
I2
sI521
I3
sI522
I1
sI523
I5
sI524
I3
sI525
I2
sI526
I4
sI527
I3
sI528
I4
sI529
I5
sI530
I3
sI531
I3
sI532
I4
sI533
I4
sI534
I2
sI535
I3
sI536
I4
sI537
I5
sI538
I5
sI539
I5
sI540
I3
sI541
I1
sI542
I5
sI543
I4
sI544
I1
sI545
I5
sI546
I3
sI547
I4
sI548
I3
sI549
I1
sI550
I4
sI551
I5
sI552
I5
sI553
I5
sI554
I4
sI555
I2
sI556
I5
sI557
I5
sI558
I4
sI559
I3
sI560
I1
sI561
I1
sI562
I3
sI563
I3
sI564
I3
sI565
I4
sI566
I3
sI567
I1
sI568
I3
sI569
I3
sI570
I4
sI571
I3
sI572
I4
sI573
I4
sI574
I3
sI575
I2
sI576
I2
sI577
I4
sI578
I4
sI579
I3
sI580
I3
sI581
I3
sI582
I2
sI583
I3
sI584
I3
sI585
I1
sI586
I2
sI587
I3
sI588
I3
sI589
I2
sI590
I2
sI591
I4
sI592
I3
sI593
I4
sI594
I4
sI595
I3
sI596
I2
sI597
I4
sI598
I1
sI599
I4
sI600
I1
sI601
I4
sI602
I4
sI603
I1
sI604
I4
sI605
I3
sI606
I3
sI607
I4
sI608
I4
sI609
I3
sI610
I1
sI611
I4
sI612
I4
sI613
I4
sI614
I1
sI615
I4
sI616
I4
sI617
I2
sI618
I1
sI619
I2
sI620
I1
sI621
I3
sI622
I3
sI623
I4
sI624
I4
sI625
I2
sI626
I4
sI627
I4
sI628
I1
sI629
I3
sI630
I3
sI631
I2
sI632
I3
sI633
I4
sI634
I2
sI635
I2
sI636
I3
sI637
I4
sI638
I1
sI639
I2
sI640
I4
sI641
I1
sI642
I4
sI643
I3
sI644
I2
sI645
I4
sI646
I3
sI647
I3
sI648
I4
sI649
I3
sI650
I4
sI651
I4
sI652
I1
sI653
I4
sI654
I1
sI655
I1
sI656
I4
sI657
I4
sI658
I2
sI659
I4
sI660
I4
sI661
I4
sI662
I4
sI663
I3
sI664
I4
sI665
I4
sI666
I4
sI667
I4
sI668
I2
sI669
I4
sI670
I2
sI671
I4
sI672
I3
sI673
I4
sI674
I1
sI675
I3
sI676
I3
sI677
I4
sI678
I4
sI679
I3
sI680
I4
sI681
I4
sI682
I4
sI683
I4
sI684
I2
sI685
I3
sI686
I1
sI687
I1
sI688
I3
sI689
I3
sI690
I2
sI691
I4
sI692
I4
sI693
I4
sI694
I2
sI695
I4
sI696
I4
sI697
I4
sI698
I4
sI699
I3
sI700
I2
sI701
I4
sI702
I4
sI703
I3
sI704
I2
sI705
I3
sI706
I4
sI707
I4
sI708
I3
sI709
I4
sI710
I3
sI711
I3
sI712
I1
sI713
I3
sI714
I4
sI715
I1
sI716
I4
sI717
I4
sI718
I1
sI719
I2
sI720
I1
sI721
I1
sI722
I3
sI723
I3
sI724
I2
sI725
I3
sI726
I3
sI727
I2
sI728
I1
sI729
I3
sI730
I3
sI731
I1
sI732
I3
sI733
I3
sI734
I3
sI735
I3
sI736
I3
sI737
I3
sI738
I1
sI739
I2
sI740
I2
sI741
I3
sI742
I3
sI743
I3
sI744
I3
sI745
I3
sI746
I1
sI747
I3
sI748
I2
sI749
I3
sI750
I3
sI751
I1
sI752
I3
sI753
I3
sI754
I3
sI755
I2
sI756
I2
sI757
I1
sI758
I2
sI759
I2
sI760
I3
sI761
I2
sI762
I3
sI763
I3
sI764
I3
sI765
I3
sI766
I3
sI767
I3
sI768
I3
sI769
I3
sI770
I2
sI771
I3
sI772
I1
sI773
I1
sI774
I2
sI775
I3
sI776
I1
sI777
I2
sI778
I3
sI779
I3
sI780
I2
sI781
I3
sI782
I3
sI783
I3
sI784
I3
sI785
I3
sI786
I2
sI787
I3
sI788
I2
sI789
I3
sI790
I2
sI791
I3
sI792
I3
sI793
I2
sI794
I3
sI795
I3
sI796
I3
sI797
I3
sI798
I3
sI799
I2
sI800
I1
sI801
I2
sI802
I3
sI803
I3
sI804
I3
sI805
I2
sI806
I3
sI807
I3
sI808
I2
sI809
I3
sI810
I1
sI811
I3
sI812
I3
sI813
I3
sI814
I3
sI815
I3
sI816
I3
sI817
I3
sI818
I3
sI819
I2
sI820
I3
sI821
I2
sI822
I3
sI823
I2
sI824
I2
sI825
I3
sI826
I3
sI827
I3
sI828
I3
sI829
I2
sI830
I1
sI831
I2
sI832
I2
sI833
I1
sI834
I2
sI835
I2
sI836
I1
sI837
I3
sI838
I2
sI839
I3
sI840
I2
sI841
I3
sI842
I1
sI843
I3
sI844
I2
sI845
I3
sI846
I3
sI847
I2
sI848
I3
sI849
I3
sI850
I2
sI851
I3
sI852
I1
sI853
I3
sI854
I3
sI855
I3
sI856
I3
sI857
I1
sI858
I1
sI859
I3
sI860
I1
sI861
I2
sI862
I3
sI863
I3
sI864
I3
sI865
I3
sI866
I3
sI867
I3
sI868
I3
sI869
I2
sI870
I3
sI871
I3
sI872
I3
sI873
I3
sI874
I3
sI875
I3
sI876
I3
sI877
I3
sI878
I2
sI879
I3
sI880
I2
sI881
I1
sI882
I2
sI883
I2
sI884
I3
sI885
I2
sI886
I2
sI887
I2
sI888
I2
sI889
I3
sI890
I1
sI891
I3
sI892
I3
sI893
I2
sI894
I3
sI895
I3
sI896
I2
sI897
I2
sI898
I2
sI899
I3
sI900
I3
sI901
I3
sI902
I1
sI903
I2
sI904
I3
sI905
I3
sI906
I1
sI907
I2
sI908
I3
sI909
I2
sI910
I3
sI911
I3
sI912
I1
sI913
I1
sI914
I3
sI915
I2
sI916
I3
sI917
I3
sI918
I3
sI919
I1
sI920
I3
sI921
I2
sI922
I3
sI923
I3
sI924
I3
sI925
I1
sI926
I2
sI927
I3
sI928
I3
sI929
I3
sI930
I3
sI931
I1
sI932
I1
sI933
I3
sI934
I3
sI935
I3
sI936
I3
sI937
I3
sI938
I1
sI939
I1
sI940
I2
sI941
I3
sI942
I3
sI943
I3
sI944
I2
sI945
I1
sI946
I3
sI947
I2
sI948
I3
sI949
I1
sI950
I2
sI951
I3
sI952
I3
sI953
I2
sI954
I1
sI955
I3
sI956
I3
sI957
I3
sI958
I3
sI959
I1
sI960
I3
sI961
I3
sI962
I3
sI963
I1
sI964
I3
sI965
I3
sI966
I1
sI967
I3
sI968
I2
sI969
I3
sI970
I3
sI971
I1
sI972
I3
sI973
I3
sI974
I2
sI975
I1
sI976
I3
sI977
I3
sI978
I1
sI979
I3
sI980
I1
sI981
I2
sI982
I1
sI983
I3
sI984
I2
sI985
I1
sI986
I2
sI987
I2
sI988
I1
sI989
I2
sI990
I1
sI991
I2
sI992
I2
sI993
I1
sI994
I2
sI995
I1
sI996
I2
sI997
I2
sI998
I2
sI999
I2
sI1000
I2
sI1001
I2
sI1002
I2
sI1003
I2
sI1004
I2
sI1005
I2
sI1006
I1
sI1007
I2
sI1008
I2
sI1009
I2
sI1010
I1
sI1011
I2
sI1012
I2
sI1013
I2
sI1014
I2
sI1015
I2
sI1016
I2
sI1017
I2
sI1018
I1
sI1019
I2
sI1020
I1
sI1021
I2
sI1022
I2
sI1023
I2
sI1024
I1
sI1025
I2
sI1026
I1
sI1027
I2
sI1028
I2
sI1029
I2
sI1030
I2
sI1031
I2
sI1032
I1
sI1033
I2
sI1034
I2
sI1035
I1
sI1036
I2
sI1037
I2
sI1038
I2
sI1039
I2
sI1040
I1
sI1041
I2
sI1042
I2
sI1043
I2
sI1044
I1
sI1045
I2
sI1046
I1
sI1047
I1
sI1048
I1
sI1049
I2
sI1050
I2
sI1051
I2
sI1052
I2
sI1053
I2
sI1054
I2
sI1055
I2
sI1056
I2
sI1057
I2
sI1058
I1
sI1059
I2
sI1060
I2
sI1061
I2
sI1062
I2
sI1063
I2
sI1064
I2
sI1065
I2
sI1066
I2
sI1067
I2
sI1068
I1
sI1069
I2
sI1070
I2
sI1071
I2
sI1072
I2
sI1073
I1
sI1074
I2
sI1075
I2
sI1076
I2
sI1077
I1
sI1078
I2
sI1079
I2
sI1080
I2
sI1081
I2
sI1082
I2
sI1083
I1
sI1084
I2
sI1085
I1
sI1086
I2
sI1087
I2
sI1088
I2
sI1089
I1
sI1090
I2
sI1091
I1
sI1092
I2
sI1093
I2
sI1094
I2
sI1095
I2
sI1096
I2
sI1097
I2
sI1098
I1
sI1099
I2
sI1100
I2
sI1101
I1
sI1102
I2
sI1103
I2
sI1104
I2
sI1105
I1
sI1106
I1
sI1107
I2
sI1108
I2
sI1109
I2
sI1110
I2
sI1111
I2
sI1112
I2
sI1113
I2
sI1114
I2
sI1115
I2
sI1116
I2
sI1117
I2
sI1118
I2
sI1119
I2
sI1120
I2
sI1121
I2
sI1122
I1
sI1123
I2
sI1124
I2
sI1125
I1
sI1126
I2
sI1127
I1
sI1128
I2
sI1129
I2
sI1130
I2
sI1131
I2
sI1132
I2
sI1133
I1
sI1134
I2
sI1135
I2
sI1136
I1
sI1137
I2
sI1138
I2
sI1139
I2
sI1140
I1
sI1141
I2
sI1142
I2
sI1143
I2
sI1144
I2
sI1145
I2
sI1146
I1
sI1147
I2
sI1148
I2
sI1149
I1
sI1150
I2
sI1151
I1
sI1152
I2
sI1153
I2
sI1154
I2
sI1155
I2
sI1156
I2
sI1157
I2
sI1158
I2
sI1159
I2
sI1160
I1
sI1161
I1
sI1162
I2
sI1163
I2
sI1164
I1
sI1165
I2
sI1166
I2
sI1167
I2
sI1168
I2
sI1169
I2
sI1170
I2
sI1171
I2
sI1172
I2
sI1173
I2
sI1174
I1
sI1175
I2
sI1176
I1
sI1177
I2
sI1178
I2
sI1179
I2
sI1180
I2
sI1181
I2
sI1182
I2
sI1183
I2
sI1184
I2
sI1185
I1
sI1186
I2
sI1187
I2
sI1188
I2
sI1189
I2
sI1190
I2
sI1191
I1
sI1192
I1
sI1193
I2
sI1194
I1
sI1195
I2
sI1196
I2
sI1197
I2
sI1198
I1
sI1199
I2
sI1200
I1
sI1201
I1
sI1202
I2
sI1203
I1
sI1204
I2
sI1205
I2
sI1206
I2
sI1207
I1
sI1208
I2
sI1209
I2
sI1210
I2
sI1211
I2
sI1212
I2
sI1213
I2
sI1214
I2
sI1215
I2
sI1216
I2
sI1217
I2
sI1218
I2
sI1219
I1
sI1220
I2
sI1221
I2
sI1222
I2
sI1223
I1
sI1224
I2
sI1225
I1
sI1226
I2
sI1227
I1
sI1228
I1
sI1229
I2
sI1230
I2
sI1231
I2
sI1232
I2
sI1233
I1
sI1234
I2
sI1235
I2
sI1236
I1
sI1237
I2
sI1238
I2
sI1239
I2
sI1240
I2
sI1241
I2
sI1242
I1
sI1243
I1
sI1244
I2
sI1245
I1
sI1246
I2
sI1247
I2
sI1248
I1
sI1249
I1
sI1250
I2
sI1251
I2
sI1252
I2
sI1253
I2
sI1254
I2
sI1255
I2
sI1256
I1
sI1257
I2
sI1258
I2
sI1259
I2
sI1260
I2
sI1261
I1
sI1262
I1
sI1263
I1
sI1264
I2
sI1265
I1
sI1266
I2
sI1267
I1
sI1268
I2
sI1269
I1
sI1270
I1
sI1271
I2
sI1272
I1
sI1273
I2
sI1274
I2
sI1275
I2
sI1276
I1
sI1277
I1
sI1278
I2
sI1279
I2
sI1280
I2
sI1281
I2
sI1282
I2
sI1283
I2
sI1284
I2
sI1285
I1
sI1286
I2
sI1287
I2
sI1288
I2
sI1289
I2
sI1290
I1
sI1291
I2
sI1292
I1
sI1293
I1
sI1294
I2
sI1295
I2
sI1296
I2
sI1297
I2
sI1298
I2
sI1299
I1
sI1300
I1
sI1301
I2
sI1302
I2
sI1303
I2
sI1304
I2
sI1305
I2
sI1306
I2
sI1307
I2
sI1308
I2
sI1309
I2
sI1310
I1
sI1311
I2
sI1312
I2
sI1313
I1
sI1314
I1
sI1315
I2
sI1316
I2
sI1317
I2
sI1318
I2
sI1319
I2
sI1320
I1
sI1321
I1
sI1322
I2
sI1323
I2
sI1324
I2
sI1325
I2
sI1326
I2
sI1327
I1
sI1328
I2
sI1329
I2
sI1330
I2
sI1331
I1
sI1332
I2
sI1333
I1
sI1334
I2
sI1335
I2
sI1336
I2
sI1337
I2
sI1338
I2
sI1339
I1
sI1340
I2
sI1341
I2
sI1342
I2
sI1343
I2
sI1344
I2
sI1345
I2
sI1346
I2
sI1347
I2
sI1348
I1
sI1349
I2
sI1350
I2
sI1351
I2
sI1352
I2
sI1353
I1
sI1354
I2
sI1355
I2
sI1356
I2
sI1357
I2
sI1358
I2
sI1359
I2
sI1360
I2
sI1361
I1
sI1362
I2
sI1363
I1
sI1364
I1
sI1365
I1
sI1366
I1
sI1367
I2
sI1368
I2
sI1369
I2
sI1370
I1
sI1371
I2
sI1372
I1
sI1373
I2
sI1374
I1
sI1375
I1
sI1376
I1
sI1377
I2
sI1378
I2
sI1379
I1
sI1380
I2
sI1381
I2
sI1382
I1
sI1383
I2
sI1384
I2
sI1385
I2
sI1386
I2
sI1387
I2
sI1388
I2
sI1389
I2
sI1390
I2
sI1391
I2
sI1392
I2
sI1393
I2
sI1394
I2
sI1395
I2
sI1396
I1
sI1397
I1
sI1398
I2
sI1399
I2
sI1400
I2
sI1401
I1
sI1402
I2
sI1403
I2
sI1404
I2
sI1405
I1
sI1406
I2
sI1407
I1
sI1408
I1
sI1409
I1
sI1410
I1
sI1411
I2
sI1412
I2
sI1413
I2
sI1414
I2
sI1415
I2
sI1416
I2
sI1417
I2
sI1418
I2
sI1419
I2
sI1420
I1
sI1421
I1
sI1422
I1
sI1423
I2
sI1424
I2
sI1425
I2
sI1426
I2
sI1427
I1
sI1428
I1
sI1429
I2
sI1430
I2
sI1431
I1
sI1432
I1
sI1433
I2
sI1434
I2
sI1435
I2
sI1436
I2
sI1437
I2
sI1438
I1
sI1439
I2
sI1440
I2
sI1441
I2
sI1442
I2
sI1443
I1
sI1444
I2
sI1445
I2
sI1446
I1
sI1447
I2
sI1448
I1
sI1449
I2
sI1450
I1
sI1451
I2
sI1452
I2
sI1453
I2
sI1454
I2
sI1455
I2
sI1456
I2
sI1457
I2
sI1458
I2
sI1459
I2
sI1460
I2
sI1461
I1
sI1462
I2
sI1463
I2
sI1464
I2
sI1465
I2
sI1466
I2
sI1467
I2
sI1468
I2
sI1469
I2
sI1470
I1
sI1471
I2
sI1472
I2
sI1473
I2
sI1474
I2
sI1475
I1
sI1476
I2
sI1477
I2
sI1478
I2
sI1479
I2
sI1480
I2
sI1481
I2
sI1482
I2
sI1483
I2
sI1484
I1
sI1485
I2
sI1486
I1
sI1487
I2
sI1488
I2
sI1489
I2
sI1490
I2
sI1491
I2
sI1492
I2
sI1493
I2
sI1494
I2
sI1495
I2
sI1496
I2
sI1497
I2
sI1498
I2
sI1499
I2
sI1500
I2
sI1501
I2
sI1502
I1
sI1503
I2
sI1504
I2
sI1505
I2
sI1506
I1
sI1507
I2
sI1508
I2
sI1509
I1
sI1510
I2
sI1511
I2
sI1512
I2
sI1513
I2
sI1514
I2
sI1515
I2
sI1516
I1
sI1517
I1
sI1518
I2
sI1519
I2
sI1520
I2
sI1521
I2
sI1522
I1
sI1523
I2
sI1524
I2
sI1525
I2
sI1526
I2
sI1527
I1
sI1528
I2
sI1529
I2
sI1530
I1
sI1531
I1
sI1532
I2
sI1533
I2
sI1534
I2
sI1535
I2
sI1536
I2
sI1537
I2
sI1538
I2
sI1539
I2
sI1540
I1
sI1541
I1
sI1542
I1
sI1543
I2
sI1544
I2
sI1545
I1
sI1546
I2
sI1547
I2
sI1548
I2
sI1549
I2
sI1550
I2
sI1551
I2
sI1552
I1
sI1553
I2
sI1554
I2
sI1555
I2
sI1556
I1
sI1557
I2
sI1558
I2
sI1559
I1
sI1560
I1
sI1561
I1
sI1562
I1
sI1563
I1
sI1564
I1
sI1565
I1
sI1566
I1
sI1567
I1
sI1568
I1
sI1569
I1
sI1570
I1
sI1571
I1
sI1572
I1
sI1573
I1
sI1574
I1
sI1575
I1
sI1576
I1
sI1577
I1
sI1578
I1
sI1579
I1
sI1580
I1
sI1581
I1
sI1582
I1
sI1583
I1
sI1584
I1
sI1585
I1
sI1586
I1
sI1587
I1
sI1588
I1
sI1589
I1
sI1590
I1
sI1591
I1
sI1592
I1
sI1593
I1
sI1594
I1
sI1595
I1
sI1596
I1
sI1597
I1
sI1598
I1
sI1599
I1
sI1600
I1
sI1601
I1
sI1602
I1
sI1603
I1
sI1604
I1
sI1605
I1
sI1606
I1
sI1607
I1
sI1608
I1
sI1609
I1
sI1610
I1
sI1611
I1
sI1612
I1
sI1613
I1
sI1614
I1
sI1615
I1
sI1616
I1
sI1617
I1
sI1618
I1
sI1619
I1
sI1620
I1
sI1621
I1
sI1622
I1
sI1623
I1
sI1624
I1
sI1625
I1
sI1626
I1
sI1627
I1
sI1628
I1
sI1629
I1
sI1630
I1
sI1631
I1
sI1632
I1
sI1633
I1
sI1634
I1
sI1635
I1
sI1636
I1
sI1637
I1
sI1638
I1
sI1639
I1
sI1640
I1
sI1641
I1
sI1642
I1
sI1643
I1
sI1644
I1
sI1645
I1
sI1646
I1
sI1647
I1
sI1648
I1
sI1649
I1
sI1650
I1
sI1651
I1
sI1652
I1
sI1653
I1
sI1654
I1
sI1655
I1
sI1656
I1
sI1657
I1
sI1658
I1
sI1659
I1
sI1660
I1
sI1661
I1
sI1662
I1
sI1663
I1
sI1664
I1
sI1665
I1
sI1666
I1
sI1667
I1
sI1668
I1
sI1669
I1
sI1670
I1
sI1671
I1
sI1672
I1
sI1673
I1
sI1674
I1
sI1675
I1
sI1676
I1
sI1677
I1
sI1678
I1
sI1679
I1
sI1680
I1
sI1681
I1
sI1682
I1
sI1683
I1
sI1684
I1
sI1685
I1
sI1686
I1
sI1687
I1
sI1688
I1
sI1689
I1
sI1690
I1
sI1691
I1
sI1692
I1
sI1693
I1
sI1694
I1
sI1695
I1
sI1696
I1
sI1697
I1
sI1698
I1
sI1699
I1
sI1700
I1
sI1701
I1
sI1702
I1
sI1703
I1
sI1704
I1
sI1705
I1
sI1706
I1
sI1707
I1
sI1708
I1
sI1709
I1
sI1710
I1
sI1711
I1
sI1712
I1
sI1713
I1
sI1714
I1
sI1715
I1
sI1716
I1
sI1717
I1
sI1718
I1
sI1719
I1
sI1720
I1
sI1721
I1
sI1722
I1
sI1723
I1
sI1724
I1
sI1725
I1
sI1726
I1
sI1727
I1
sI1728
I1
sI1729
I1
sI1730
I1
sI1731
I1
sI1732
I1
sI1733
I1
sI1734
I1
sI1735
I1
sI1736
I1
sI1737
I1
sI1738
I1
sI1739
I1
sI1740
I1
sI1741
I1
sI1742
I1
sI1743
I1
sI1744
I1
sI1745
I1
sI1746
I1
sI1747
I1
sI1748
I1
sI1749
I1
sI1750
I1
sI1751
I1
sI1752
I1
sI1753
I1
sI1754
I1
sI1755
I1
sI1756
I1
sI1757
I1
sI1758
I1
sI1759
I1
sI1760
I1
sI1761
I1
sI1762
I1
sI1763
I1
sI1764
I1
sI1765
I1
sI1766
I1
sI1767
I1
sI1768
I1
sI1769
I1
sI1770
I1
sI1771
I1
sI1772
I1
sI1773
I1
sI1774
I1
sI1775
I1
sI1776
I1
sI1777
I1
sI1778
I1
sI1779
I1
sI1780
I1
sI1781
I1
sI1782
I1
sI1783
I1
sI1784
I1
sI1785
I1
sI1786
I1
sI1787
I1
sI1788
I1
sI1789
I1
sI1790
I1
sI1791
I1
sI1792
I1
sI1793
I1
sI1794
I1
sI1795
I1
sI1796
I1
sI1797
I1
sI1798
I1
sI1799
I1
sI1800
I1
sI1801
I1
sI1802
I1
sI1803
I1
sI1804
I1
sI1805
I1
sI1806
I1
sI1807
I1
sI1808
I1
sI1809
I1
sI1810
I1
sI1811
I1
sI1812
I1
sI1813
I1
sI1814
I1
sI1815
I1
sI1816
I1
sI1817
I1
sI1818
I1
sI1819
I1
sI1820
I1
sI1821
I1
sI1822
I1
sI1823
I1
sI1824
I1
sI1825
I1
sI1826
I1
sI1827
I1
sI1828
I1
sI1829
I1
sI1830
I1
sI1831
I1
sI1832
I1
sI1833
I1
sI1834
I1
sI1835
I1
sI1836
I1
sI1837
I1
sI1838
I1
sI1839
I1
sI1840
I1
sI1841
I1
sI1842
I1
sI1843
I1
sI1844
I1
sI1845
I1
sI1846
I1
sI1847
I1
sI1848
I1
sI1849
I1
sI1850
I1
sI1851
I1
sI1852
I1
sI1853
I1
sI1854
I1
sI1855
I1
sI1856
I1
sI1857
I1
sI1858
I1
sI1859
I1
sI1860
I1
sI1861
I1
sI1862
I1
sI1863
I1
sI1864
I1
sI1865
I1
sI1866
I1
sI1867
I1
sI1868
I1
sI1869
I1
sI1870
I1
sI1871
I1
sI1872
I1
sI1873
I1
sI1874
I1
sI1875
I1
sI1876
I1
sI1877
I1
sI1878
I1
sI1879
I1
sI1880
I1
sI1881
I1
sI1882
I1
sI1883
I1
sI1884
I1
sI1885
I1
sI1886
I1
sI1887
I1
sI1888
I1
sI1889
I1
sI1890
I1
sI1891
I1
sI1892
I1
sI1893
I1
sI1894
I1
sI1895
I1
sI1896
I1
sI1897
I1
sI1898
I1
sI1899
I1
sI1900
I1
sI1901
I1
sI1902
I1
sI1903
I1
sI1904
I1
sI1905
I1
sI1906
I1
sI1907
I1
sI1908
I1
sI1909
I1
sI1910
I1
sI1911
I1
sI1912
I1
sI1913
I1
sI1914
I1
sI1915
I1
sI1916
I1
sI1917
I1
sI1918
I1
sI1919
I1
sI1920
I1
sI1921
I1
sI1922
I1
sI1923
I1
sI1924
I1
sI1925
I1
sI1926
I1
sI1927
I1
sI1928
I1
sI1929
I1
sI1930
I1
sI1931
I1
sI1932
I1
sI1933
I1
sI1934
I1
sI1935
I1
sI1936
I1
sI1937
I1
sI1938
I1
sI1939
I1
sI1940
I1
sI1941
I1
sI1942
I1
sI1943
I1
sI1944
I1
sI1945
I1
sI1946
I1
sI1947
I1
sI1948
I1
sI1949
I1
sI1950
I1
sI1951
I1
sI1952
I1
sI1953
I1
sI1954
I1
sI1955
I1
sI1956
I1
sI1957
I1
sI1958
I1
sI1959
I1
sI1960
I1
sI1961
I1
sI1962
I1
sI1963
I1
sI1964
I1
sI1965
I1
sI1966
I1
sI1967
I1
sI1968
I1
sI1969
I1
sI1970
I1
sI1971
I1
sI1972
I1
sI1973
I1
sI1974
I1
sI1975
I1
sI1976
I1
sI1977
I1
sI1978
I1
sI1979
I1
sI1980
I1
sI1981
I1
sI1982
I1
sI1983
I1
sI1984
I1
sI1985
I1
sI1986
I1
sI1987
I1
sI1988
I1
sI1989
I1
sI1990
I1
sI1991
I1
sI1992
I1
sI1993
I1
sI1994
I1
sI1995
I1
sI1996
I1
sI1997
I1
sI1998
I1
sI1999
I1
sI2000
I1
sI2001
I1
sI2002
I1
sI2003
I1
sI2004
I1
sI2005
I1
sI2006
I1
sI2007
I1
sI2008
I1
sI2009
I1
sI2010
I1
sI2011
I1
sI2012
I1
sI2013
I1
sI2014
I1
sI2015
I1
sI2016
I1
sI2017
I1
sI2018
I1
sI2019
I1
sI2020
I1
sI2021
I1
sI2022
I1
sI2023
I1
sI2024
I1
sI2025
I1
sI2026
I1
sI2027
I1
sI2028
I1
sI2029
I1
sI2030
I1
sI2031
I1
sI2032
I1
sI2033
I1
sI2034
I1
sI2035
I1
sI2036
I1
sI2037
I1
sI2038
I1
sI2039
I1
sI2040
I1
sI2041
I1
sI2042
I1
sI2043
I1
sI2044
I1
sI2045
I1
sI2046
I1
sI2047
I1
sI2048
I1
sI2049
I1
sI2050
I1
sI2051
I1
sI2052
I1
sI2053
I1
sI2054
I1
sI2055
I1
sI2056
I1
sI2057
I1
sI2058
I1
sI2059
I1
sI2060
I1
sI2061
I1
sI2062
I1
sI2063
I1
sI2064
I1
sI2065
I1
sI2066
I1
sI2067
I1
sI2068
I1
sI2069
I1
sI2070
I1
sI2071
I1
sI2072
I1
sI2073
I1
sI2074
I1
sI2075
I1
sI2076
I1
sI2077
I1
sI2078
I1
sI2079
I1
sI2080
I1
sI2081
I1
sI2082
I1
sI2083
I1
sI2084
I1
sI2085
I1
sI2086
I1
sI2087
I1
sI2088
I1
sI2089
I1
sI2090
I1
sI2091
I1
sI2092
I1
sI2093
I1
sI2094
I1
sI2095
I1
sI2096
I1
sI2097
I1
sI2098
I1
sI2099
I1
sI2100
I1
sI2101
I1
sI2102
I1
sI2103
I1
sI2104
I1
sI2105
I1
sI2106
I1
sI2107
I1
sI2108
I1
sI2109
I1
sI2110
I1
sI2111
I1
sI2112
I1
sI2113
I1
sI2114
I1
sI2115
I1
sI2116
I1
sI2117
I1
sI2118
I1
sI2119
I1
sI2120
I1
sI2121
I1
sI2122
I1
sI2123
I1
sI2124
I1
sI2125
I1
sI2126
I1
sI2127
I1
sI2128
I1
sI2129
I1
sI2130
I1
sI2131
I1
sI2132
I1
sI2133
I1
sI2134
I1
sI2135
I1
sI2136
I1
sI2137
I1
sI2138
I1
sI2139
I1
sI2140
I1
sI2141
I1
sI2142
I1
sI2143
I1
sI2144
I1
sI2145
I1
sI2146
I1
sI2147
I1
sI2148
I1
sI2149
I1
sI2150
I1
sI2151
I1
sI2152
I1
sI2153
I1
sI2154
I1
sI2155
I1
sI2156
I1
sI2157
I1
sI2158
I1
sI2159
I1
sI2160
I1
sI2161
I1
sI2162
I1
sI2163
I1
sI2164
I1
sI2165
I1
sI2166
I1
sI2167
I1
sI2168
I1
sI2169
I1
sI2170
I1
sI2171
I1
sI2172
I1
sI2173
I1
sI2174
I1
sI2175
I1
sI2176
I1
sI2177
I1
sI2178
I1
sI2179
I1
sI2180
I1
sI2181
I1
sI2182
I1
sI2183
I1
sI2184
I1
sI2185
I1
sI2186
I1
sI2187
I1
sI2188
I1
sI2189
I1
sI2190
I1
sI2191
I1
sI2192
I1
sI2193
I1
sI2194
I1
sI2195
I1
sI2196
I1
sI2197
I1
sI2198
I1
sI2199
I1
sI2200
I1
sI2201
I1
sI2202
I1
sI2203
I1
sI2204
I1
sI2205
I1
sI2206
I1
sI2207
I1
sI2208
I1
sI2209
I1
sI2210
I1
sI2211
I1
sI2212
I1
sI2213
I1
sI2214
I1
sI2215
I1
sI2216
I1
sI2217
I1
sI2218
I1
sI2219
I1
sI2220
I1
sI2221
I1
sI2222
I1
sI2223
I1
sI2224
I1
sI2225
I1
sI2226
I1
sI2227
I1
sI2228
I1
sI2229
I1
sI2230
I1
sI2231
I1
sI2232
I1
sI2233
I1
sI2234
I1
sI2235
I1
sI2236
I1
sI2237
I1
sI2238
I1
sI2239
I1
sI2240
I1
sI2241
I1
sI2242
I1
sI2243
I1
sI2244
I1
sI2245
I1
sI2246
I1
sI2247
I1
sI2248
I1
sI2249
I1
sI2250
I1
sI2251
I1
sI2252
I1
sI2253
I1
sI2254
I1
sI2255
I1
sI2256
I1
sI2257
I1
sI2258
I1
sI2259
I1
sI2260
I1
sI2261
I1
sI2262
I1
sI2263
I1
sI2264
I1
sI2265
I1
sI2266
I1
sI2267
I1
sI2268
I1
sI2269
I1
sI2270
I1
sI2271
I1
sI2272
I1
sI2273
I1
sI2274
I1
sI2275
I1
sI2276
I1
sI2277
I1
sI2278
I1
sI2279
I1
sI2280
I1
sI2281
I1
sI2282
I1
sI2283
I1
sI2284
I1
sI2285
I1
sI2286
I1
sI2287
I1
sI2288
I1
sI2289
I1
sI2290
I1
sI2291
I1
sI2292
I1
sI2293
I1
sI2294
I1
sI2295
I1
sI2296
I1
sI2297
I1
sI2298
I1
sI2299
I1
sI2300
I1
sI2301
I1
sI2302
I1
sI2303
I1
sI2304
I1
sI2305
I1
sI2306
I1
sI2307
I1
sI2308
I1
sI2309
I1
sI2310
I1
sI2311
I1
sI2312
I1
sI2313
I1
sI2314
I1
sI2315
I1
sI2316
I1
sI2317
I1
sI2318
I1
sI2319
I1
sI2320
I1
sI2321
I1
sI2322
I1
sI2323
I1
sI2324
I1
sI2325
I1
sI2326
I1
sI2327
I1
sI2328
I1
sI2329
I1
sI2330
I1
sI2331
I1
sI2332
I1
sI2333
I1
sI2334
I1
sI2335
I1
sI2336
I1
sI2337
I1
sI2338
I1
sI2339
I1
sI2340
I1
sI2341
I1
sI2342
I1
sI2343
I1
sI2344
I1
sI2345
I1
sI2346
I1
sI2347
I1
sI2348
I1
sI2349
I1
sI2350
I1
sI2351
I1
sI2352
I1
sI2353
I1
sI2354
I1
sI2355
I1
sI2356
I1
sI2357
I1
sI2358
I1
sI2359
I1
sI2360
I1
sI2361
I1
sI2362
I1
sI2363
I1
sI2364
I1
sI2365
I1
sI2366
I1
sI2367
I1
sI2368
I1
sI2369
I1
sI2370
I1
sI2371
I1
sI2372
I1
sI2373
I1
sI2374
I1
sI2375
I1
sI2376
I1
sI2377
I1
sI2378
I1
sI2379
I1
sI2380
I1
sI2381
I1
sI2382
I1
sI2383
I1
sI2384
I1
sI2385
I1
sI2386
I1
sI2387
I1
sI2388
I1
sI2389
I1
sI2390
I1
sI2391
I1
sI2392
I1
sI2393
I1
sI2394
I1
sI2395
I1
sI2396
I1
sI2397
I1
sI2398
I1
sI2399
I1
sI2400
I1
sI2401
I1
sI2402
I1
sI2403
I1
sI2404
I1
sI2405
I1
sI2406
I1
sI2407
I1
sI2408
I1
sI2409
I1
sI2410
I1
sI2411
I1
sI2412
I1
sI2413
I1
sI2414
I1
sI2415
I1
sI2416
I1
sI2417
I1
sI2418
I1
sI2419
I1
sI2420
I1
sI2421
I1
sI2422
I1
sI2423
I1
sI2424
I1
sI2425
I1
sI2426
I1
sI2427
I1
sI2428
I1
sI2429
I1
sI2430
I1
sI2431
I1
sI2432
I1
sI2433
I1
sI2434
I1
sI2435
I1
sI2436
I1
sI2437
I1
sI2438
I1
sI2439
I1
sI2440
I1
sI2441
I1
sI2442
I1
sI2443
I1
sI2444
I1
sI2445
I1
sI2446
I1
sI2447
I1
sI2448
I1
sI2449
I1
sI2450
I1
sI2451
I1
sI2452
I1
sI2453
I1
sI2454
I1
sI2455
I1
sI2456
I1
sI2457
I1
sI2458
I1
sI2459
I1
sI2460
I1
sI2461
I1
sI2462
I1
sI2463
I1
sI2464
I1
sI2465
I1
sI2466
I1
sI2467
I1
sI2468
I1
sI2469
I1
sI2470
I1
sI2471
I1
sI2472
I1
sI2473
I1
sI2474
I1
sI2475
I1
sI2476
I1
sI2477
I1
sI2478
I1
sI2479
I1
sI2480
I1
sI2481
I1
sI2482
I1
sI2483
I1
sI2484
I1
sI2485
I1
sI2486
I1
sI2487
I1
sI2488
I1
sI2489
I1
sI2490
I1
sI2491
I1
sI2492
I1
sI2493
I1
sI2494
I1
sI2495
I1
sI2496
I1
sI2497
I1
sI2498
I1
sI2499
I1
sI2500
I1
sI2501
I1
sI2502
I1
sI2503
I1
sI2504
I1
sI2505
I1
sI2506
I1
sI2507
I1
sI2508
I1
sI2509
I1
sI2510
I1
sI2511
I1
sI2512
I1
sI2513
I1
sI2514
I1
sI2515
I1
sI2516
I1
sI2517
I1
sI2518
I1
sI2519
I1
sI2520
I1
sI2521
I1
sI2522
I1
sI2523
I1
sI2524
I1
sI2525
I1
sI2526
I1
sI2527
I1
sI2528
I1
sI2529
I1
sI2530
I1
sI2531
I1
sI2532
I1
sI2533
I1
sI2534
I1
sI2535
I1
sI2536
I1
sI2537
I1
sI2538
I1
sI2539
I1
sI2540
I1
sI2541
I1
sI2542
I1
sI2543
I1
sI2544
I1
sI2545
I1
sI2546
I1
sI2547
I1
sI2548
I1
sI2549
I1
sI2550
I1
sI2551
I1
sI2552
I1
sI2553
I1
sI2554
I1
sI2555
I1
sI2556
I1
sI2557
I1
sI2558
I1
sI2559
I1
sI2560
I1
sI2561
I1
sI2562
I1
sI2563
I1
sI2564
I1
sI2565
I1
sI2566
I1
sI2567
I1
sI2568
I1
sI2569
I1
sI2570
I1
sI2571
I1
sI2572
I1
sI2573
I1
sI2574
I1
sI2575
I1
sI2576
I1
sI2577
I1
sI2578
I1
sI2579
I1
sI2580
I1
sI2581
I1
sI2582
I1
sI2583
I1
sI2584
I1
sI2585
I1
sI2586
I1
sI2587
I1
sI2588
I1
sI2589
I1
sI2590
I1
sI2591
I1
sI2592
I1
sI2593
I1
sI2594
I1
sI2595
I1
sI2596
I1
sI2597
I1
sI2598
I1
sI2599
I1
sI2600
I1
sI2601
I1
sI2602
I1
sI2603
I1
sI2604
I1
sI2605
I1
sI2606
I1
sI2607
I1
sI2608
I1
sI2609
I1
sI2610
I1
sI2611
I1
sI2612
I1
sI2613
I1
sI2614
I1
sI2615
I1
sI2616
I1
sI2617
I1
sI2618
I1
sI2619
I1
sI2620
I1
sI2621
I1
sI2622
I1
sI2623
I1
sI2624
I1
sI2625
I1
sI2626
I1
sI2627
I1
sI2628
I1
sI2629
I1
sI2630
I1
sI2631
I1
sI2632
I1
sI2633
I1
sI2634
I1
sI2635
I1
sI2636
I1
sI2637
I1
sI2638
I1
sI2639
I1
sI2640
I1
sI2641
I1
sI2642
I1
sI2643
I1
sI2644
I1
sI2645
I1
sI2646
I1
sI2647
I1
sI2648
I1
sI2649
I1
sI2650
I1
sI2651
I1
sI2652
I1
sI2653
I1
sI2654
I1
sI2655
I1
sI2656
I1
sI2657
I1
sI2658
I1
sI2659
I1
sI2660
I1
sI2661
I1
sI2662
I1
sI2663
I1
sI2664
I1
sI2665
I1
sI2666
I1
sI2667
I1
sI2668
I1
sI2669
I1
sI2670
I1
sI2671
I1
sI2672
I1
sI2673
I1
sI2674
I1
sI2675
I1
sI2676
I1
sI2677
I1
sI2678
I1
sI2679
I1
sI2680
I1
sI2681
I1
sI2682
I1
sI2683
I1
sI2684
I1
sI2685
I1
sI2686
I1
sI2687
I1
sI2688
I1
sI2689
I1
sI2690
I1
sI2691
I1
sI2692
I1
sI2693
I1
sI2694
I1
sI2695
I1
sI2696
I1
sI2697
I1
sI2698
I1
sI2699
I1
sI2700
I1
sI2701
I1
sI2702
I1
sI2703
I1
sI2704
I1
sI2705
I1
sI2706
I1
sI2707
I1
sI2708
I1
sI2709
I1
sI2710
I1
sI2711
I1
sI2712
I1
sI2713
I1
sI2714
I1
sI2715
I1
sI2716
I1
sI2717
I1
sI2718
I1
sI2719
I1
sI2720
I1
sI2721
I1
sI2722
I1
sI2723
I1
sI2724
I1
sI2725
I1
sI2726
I1
sI2727
I1
sI2728
I1
sI2729
I1
sI2730
I1
sI2731
I1
sI2732
I1
sI2733
I1
sI2734
I1
sI2735
I1
sI2736
I1
sI2737
I1
sI2738
I1
sI2739
I1
sI2740
I1
sI2741
I1
sI2742
I1
sI2743
I1
sI2744
I1
sI2745
I1
sI2746
I1
sI2747
I1
sI2748
I1
sI2749
I1
sI2750
I1
sI2751
I1
sI2752
I1
sI2753
I1
sI2754
I1
sI2755
I1
sI2756
I1
sI2757
I1
sI2758
I1
sI2759
I1
sI2760
I1
sI2761
I1
sI2762
I1
sI2763
I1
sI2764
I1
sI2765
I1
sI2766
I1
sI2767
I1
sI2768
I1
sI2769
I1
sI2770
I1
sI2771
I1
sI2772
I1
sI2773
I1
sI2774
I1
sI2775
I1
sI2776
I1
sI2777
I1
sI2778
I1
sI2779
I1
sI2780
I1
sI2781
I1
sI2782
I1
sI2783
I1
sI2784
I1
sI2785
I1
sI2786
I1
sI2787
I1
sI2788
I1
sI2789
I1
sI2790
I1
sI2791
I1
sI2792
I1
sI2793
I1
sI2794
I1
sI2795
I1
sI2796
I1
sI2797
I1
sI2798
I1
sI2799
I1
sI2800
I1
sI2801
I1
sI2802
I1
sI2803
I1
sI2804
I1
sI2805
I1
sI2806
I1
sI2807
I1
sI2808
I1
sI2809
I1
sI2810
I1
sI2811
I1
sI2812
I1
sI2813
I1
sI2814
I1
sI2815
I1
sI2816
I1
sI2817
I1
sI2818
I1
sI2819
I1
sI2820
I1
sI2821
I1
sI2822
I1
sI2823
I1
sI2824
I1
sI2825
I1
sI2826
I1
sI2827
I1
sI2828
I1
sI2829
I1
sI2830
I1
sI2831
I1
sI2832
I1
sI2833
I1
sI2834
I1
sI2835
I1
sI2836
I1
sI2837
I1
sI2838
I1
sI2839
I1
sI2840
I1
sI2841
I1
sI2842
I1
sI2843
I1
sI2844
I1
sI2845
I1
sI2846
I1
sI2847
I1
sI2848
I1
sI2849
I1
sI2850
I1
sI2851
I1
sI2852
I1
sI2853
I1
sI2854
I1
sI2855
I1
sI2856
I1
sI2857
I1
sI2858
I1
sI2859
I1
sI2860
I1
sI2861
I1
sI2862
I1
sI2863
I1
sI2864
I1
sI2865
I1
sI2866
I1
sI2867
I1
sI2868
I1
sI2869
I1
sI2870
I1
sI2871
I1
sI2872
I1
sI2873
I1
sI2874
I1
sI2875
I1
sI2876
I1
sI2877
I1
sI2878
I1
sI2879
I1
sI2880
I1
sI2881
I1
sI2882
I1
sI2883
I1
sI2884
I1
sI2885
I1
sI2886
I1
sI2887
I1
sI2888
I1
sI2889
I1
sI2890
I1
sI2891
I1
sI2892
I1
sI2893
I1
sI2894
I1
sI2895
I1
sI2896
I1
sI2897
I1
sI2898
I1
sI2899
I1
sI2900
I1
sI2901
I1
sI2902
I1
sI2903
I1
sI2904
I1
sI2905
I1
sI2906
I1
sI2907
I1
sI2908
I1
sI2909
I1
sI2910
I1
sI2911
I1
sI2912
I1
sI2913
I1
sI2914
I1
sI2915
I1
sI2916
I1
sI2917
I1
sI2918
I1
sI2919
I1
sI2920
I1
sI2921
I1
sI2922
I1
sI2923
I1
sI2924
I1
sI2925
I1
sI2926
I1
sI2927
I1
sI2928
I1
sI2929
I1
sI2930
I1
sI2931
I1
sI2932
I1
sI2933
I1
sI2934
I1
sI2935
I1
sI2936
I1
sI2937
I1
sI2938
I1
sI2939
I1
sI2940
I1
sI2941
I1
sI2942
I1
sI2943
I1
sI2944
I1
sI2945
I1
sI2946
I1
sI2947
I1
sI2948
I1
sI2949
I1
sI2950
I1
sI2951
I1
sI2952
I1
sI2953
I1
sI2954
I1
sI2955
I1
sI2956
I1
sI2957
I1
sI2958
I1
sI2959
I1
sI2960
I1
sI2961
I1
sI2962
I1
sI2963
I1
sI2964
I1
sI2965
I1
sI2966
I1
sI2967
I1
sI2968
I1
sI2969
I1
sI2970
I1
sI2971
I1
sI2972
I1
sI2973
I1
sI2974
I1
sI2975
I1
sI2976
I1
sI2977
I1
sI2978
I1
sI2979
I1
sI2980
I1
sI2981
I1
sI2982
I1
sI2983
I1
sI2984
I1
sI2985
I1
sI2986
I1
sI2987
I1
sI2988
I1
sI2989
I1
sI2990
I1
sI2991
I1
sI2992
I1
sI2993
I1
sI2994
I1
sI2995
I1
sI2996
I1
sI2997
I1
sI2998
I1
sI2999
I1
sI3000
I1
sI3001
I1
sI3002
I1
sI3003
I1
sI3004
I1
sI3005
I1
sI3006
I1
sI3007
I1
sI3008
I1
sI3009
I1
sI3010
I1
sI3011
I1
sI3012
I1
sI3013
I1
sI3014
I1
sI3015
I1
sI3016
I1
sI3017
I1
sI3018
I1
sI3019
I1
sI3020
I1
sI3021
I1
sI3022
I1
sI3023
I1
sI3024
I1
sI3025
I1
sI3026
I1
sI3027
I1
sI3028
I1
sI3029
I1
sI3030
I1
sI3031
I1
sI3032
I1
sI3033
I1
sI3034
I1
sI3035
I1
sI3036
I1
sI3037
I1
sI3038
I1
sI3039
I1
sI3040
I1
sI3041
I1
sI3042
I1
sI3043
I1
sI3044
I1
sI3045
I1
sI3046
I1
sI3047
I1
sI3048
I1
sI3049
I1
sI3050
I1
sI3051
I1
sI3052
I1
sI3053
I1
sI3054
I1
sI3055
I1
sI3056
I1
sI3057
I1
sI3058
I1
sI3059
I1
sI3060
I1
sI3061
I1
sI3062
I1
sI3063
I1
sI3064
I1
sI3065
I1
sI3066
I1
sI3067
I1
sI3068
I1
sI3069
I1
sI3070
I1
sI3071
I1
sI3072
I1
sI3073
I1
sI3074
I1
sI3075
I1
sI3076
I1
sI3077
I1
sI3078
I1
sI3079
I1
sI3080
I1
sI3081
I1
sI3082
I1
sI3083
I1
sI3084
I1
sI3085
I1
sI3086
I1
sI3087
I1
sI3088
I1
sI3089
I1
sI3090
I1
sI3091
I1
sI3092
I1
sI3093
I1
sI3094
I1
sI3095
I1
sI3096
I1
sI3097
I1
sI3098
I1
sI3099
I1
sI3100
I1
sI3101
I1
sI3102
I1
sI3103
I1
sI3104
I1
sI3105
I1
sI3106
I1
sI3107
I1
sI3108
I1
sI3109
I1
sI3110
I1
sI3111
I1
sI3112
I1
sI3113
I1
sI3114
I1
sI3115
I1
sI3116
I1
sI3117
I1
sI3118
I1
sI3119
I1
sI3120
I1
sI3121
I1
sI3122
I1
sI3123
I1
sI3124
I1
sI3125
I1
sI3126
I1
sI3127
I1
sI3128
I1
sI3129
I1
sI3130
I1
sI3131
I1
sI3132
I1
sI3133
I1
sI3134
I1
sI3135
I1
sI3136
I1
sI3137
I1
sI3138
I1
sI3139
I1
sI3140
I1
sI3141
I1
sI3142
I1
sI3143
I1
sI3144
I1
sI3145
I1
sI3146
I1
sI3147
I1
sI3148
I1
sI3149
I1
sI3150
I1
sI3151
I1
sI3152
I1
sI3153
I1
sI3154
I1
sI3155
I1
sI3156
I1
sI3157
I1
sI3158
I1
sI3159
I1
sI3160
I1
sI3161
I1
sI3162
I1
sI3163
I1
sI3164
I1
sI3165
I1
sI3166
I1
sI3167
I1
sI3168
I1
sI3169
I1
sI3170
I1
sI3171
I1
sI3172
I1
sI3173
I1
sI3174
I1
sI3175
I1
sI3176
I1
sI3177
I1
sI3178
I1
sI3179
I1
sI3180
I1
sI3181
I1
sI3182
I1
sI3183
I1
sI3184
I1
sI3185
I1
sI3186
I1
sI3187
I1
sI3188
I1
sI3189
I1
sI3190
I1
sI3191
I1
sI3192
I1
sI3193
I1
sI3194
I1
sI3195
I1
sI3196
I1
sI3197
I1
sI3198
I1
sI3199
I1
sI3200
I1
sI3201
I1
sI3202
I1
sI3203
I1
sI3204
I1
sI3205
I1
sI3206
I1
sI3207
I1
sI3208
I1
sI3209
I1
sI3210
I1
sI3211
I1
sI3212
I1
sI3213
I1
sI3214
I1
sI3215
I1
sI3216
I1
sI3217
I1
sI3218
I1
sI3219
I1
sI3220
I1
sI3221
I1
sI3222
I1
sI3223
I1
sI3224
I1
sI3225
I1
sI3226
I1
sI3227
I1
sI3228
I1
sI3229
I1
sI3230
I1
sI3231
I1
sI3232
I1
sI3233
I1
sI3234
I1
sI3235
I1
sI3236
I1
sI3237
I1
sI3238
I1
sI3239
I1
sI3240
I1
sI3241
I1
sI3242
I1
sI3243
I1
sI3244
I1
sI3245
I1
sI3246
I1
sI3247
I1
sI3248
I1
sI3249
I1
sI3250
I1
sI3251
I1
sI3252
I1
sI3253
I1
sI3254
I1
sI3255
I1
sI3256
I1
sI3257
I1
sI3258
I1
sI3259
I1
sI3260
I1
sI3261
I1
sI3262
I1
sI3263
I1
sI3264
I1
sI3265
I1
sI3266
I1
sI3267
I1
sI3268
I1
sI3269
I1
sI3270
I1
sI3271
I1
sI3272
I1
sI3273
I1
sI3274
I1
sI3275
I1
sI3276
I1
sI3277
I1
sI3278
I1
sI3279
I1
sI3280
I1
sI3281
I1
sI3282
I1
sI3283
I1
sI3284
I1
sI3285
I1
sI3286
I1
sI3287
I1
sI3288
I1
sI3289
I1
sI3290
I1
sI3291
I1
sI3292
I1
sI3293
I1
sI3294
I1
sI3295
I1
sI3296
I1
sI3297
I1
sI3298
I1
sI3299
I1
sI3300
I1
sI3301
I1
sI3302
I1
sI3303
I1
sI3304
I1
sI3305
I1
sI3306
I1
sI3307
I1
sI3308
I1
sI3309
I1
sI3310
I1
sI3311
I1
sI3312
I1
sI3313
I1
sI3314
I1
sI3315
I1
sI3316
I1
sI3317
I1
sI3318
I1
sI3319
I1
sI3320
I1
sI3321
I1
sI3322
I1
sI3323
I1
sI3324
I1
sI3325
I1
sI3326
I1
sI3327
I1
sI3328
I1
sI3329
I1
sI3330
I1
sI3331
I1
sI3332
I1
sI3333
I1
sI3334
I1
sI3335
I1
sI3336
I1
sI3337
I1
sI3338
I1
sI3339
I1
sI3340
I1
sI3341
I1
sI3342
I1
sI3343
I1
sI3344
I1
sI3345
I1
sI3346
I1
sI3347
I1
sI3348
I1
sI3349
I1
sI3350
I1
sI3351
I1
sI3352
I1
sI3353
I1
sI3354
I1
sI3355
I1
sI3356
I1
sI3357
I1
sI3358
I1
sI3359
I1
sI3360
I1
sI3361
I1
sI3362
I1
sI3363
I1
sI3364
I1
sI3365
I1
sI3366
I1
sI3367
I1
sI3368
I1
sI3369
I1
sI3370
I1
sI3371
I1
sI3372
I1
sI3373
I1
sI3374
I1
sI3375
I1
sI3376
I1
sI3377
I1
sI3378
I1
sI3379
I1
sI3380
I1
sI3381
I1
sI3382
I1
sI3383
I1
sI3384
I1
sI3385
I1
sI3386
I1
sI3387
I1
sI3388
I1
sI3389
I1
sI3390
I1
sI3391
I1
sI3392
I1
sI3393
I1
sI3394
I1
sI3395
I1
sI3396
I1
sI3397
I1
sI3398
I1
sI3399
I1
sI3400
I1
sI3401
I1
sI3402
I1
sI3403
I1
sI3404
I1
sI3405
I1
sI3406
I1
sI3407
I1
sI3408
I1
sI3409
I1
sI3410
I1
sI3411
I1
sI3412
I1
sI3413
I1
sI3414
I1
sI3415
I1
sI3416
I1
sI3417
I1
sI3418
I1
sI3419
I1
sI3420
I1
sI3421
I1
sI3422
I1
sI3423
I1
sI3424
I1
sI3425
I1
sI3426
I1
sI3427
I1
sI3428
I1
sI3429
I1
sI3430
I1
sI3431
I1
sI3432
I1
sI3433
I1
sI3434
I1
sI3435
I1
sI3436
I1
sI3437
I1
sI3438
I1
sI3439
I1
sI3440
I1
sI3441
I1
sI3442
I1
sI3443
I1
sI3444
I1
sI3445
I1
sI3446
I1
sI3447
I1
sI3448
I1
sI3449
I1
sI3450
I1
sI3451
I1
sI3452
I1
sI3453
I1
sI3454
I1
sI3455
I1
sI3456
I1
sI3457
I1
sI3458
I1
sI3459
I1
sI3460
I1
sI3461
I1
sI3462
I1
sI3463
I1
sI3464
I1
sI3465
I1
sI3466
I1
sI3467
I1
sI3468
I1
sI3469
I1
sI3470
I1
sI3471
I1
sI3472
I1
sI3473
I1
sI3474
I1
sI3475
I1
sI3476
I1
sI3477
I1
sI3478
I1
sI3479
I1
sI3480
I1
sI3481
I1
sI3482
I1
sI3483
I1
sI3484
I1
sI3485
I1
sI3486
I1
sI3487
I1
sI3488
I1
sI3489
I1
sI3490
I1
sI3491
I1
sI3492
I1
sI3493
I1
sI3494
I1
sI3495
I1
sI3496
I1
sI3497
I1
sI3498
I1
sI3499
I1
sI3500
I1
sI3501
I1
sI3502
I1
sI3503
I1
sI3504
I1
sI3505
I1
sI3506
I1
sI3507
I1
sI3508
I1
sI3509
I1
sI3510
I1
sI3511
I1
sI3512
I1
sI3513
I1
sI3514
I1
sI3515
I1
sI3516
I1
sI3517
I1
sI3518
I1
sI3519
I1
sI3520
I1
sI3521
I1
sI3522
I1
sI3523
I1
sI3524
I1
sI3525
I1
sI3526
I1
sI3527
I1
sI3528
I1
sI3529
I1
sI3530
I1
sI3531
I1
sI3532
I1
sI3533
I1
sI3534
I1
sI3535
I1
sI3536
I1
sI3537
I1
sI3538
I1
sI3539
I1
sI3540
I1
sI3541
I1
sI3542
I1
sI3543
I1
sI3544
I1
sI3545
I1
sI3546
I1
sI3547
I1
sI3548
I1
sI3549
I1
sI3550
I1
sI3551
I1
sI3552
I1
sI3553
I1
sI3554
I1
sI3555
I1
sI3556
I1
sI3557
I1
sI3558
I1
sI3559
I1
sI3560
I1
sI3561
I1
sI3562
I1
sI3563
I1
sI3564
I1
sI3565
I1
sI3566
I1
sI3567
I1
sI3568
I1
sI3569
I1
sI3570
I1
sI3571
I1
sI3572
I1
sI3573
I1
sI3574
I1
sI3575
I1
sI3576
I1
sI3577
I1
sI3578
I1
sI3579
I1
sI3580
I1
sI3581
I1
sI3582
I1
sI3583
I1
sI3584
I1
sI3585
I1
sI3586
I1
sI3587
I1
sI3588
I1
sI3589
I1
sI3590
I1
ssS'document_count'
p3575
I500
sS'num_words'
p3576
I50000
sb.